C51 COMPILER V9.51   CYFITTER_CFG                                                          06/30/2014 14:50:27 PAGE 1   


C51 COMPILER V9.51, COMPILATION OF MODULE CYFITTER_CFG
OBJECT MODULE PLACED IN .\DP8051\DP8051_Keil_951\Debug\cyfitter_cfg.obj
COMPILER INVOKED BY: C:\Program Files\Cypress\PSoC Creator\3.0\PSoC Creator\import\keil\pk51\9.51\C51\BIN\c51.exe .\Gene
                    -rated_Source\PSoC3\cyfitter_cfg.c NOIV LARGE MODDP2 OMF2 VB(1) PR(.\DP8051\DP8051_Keil_951\Debug\cyfitter_cfg.lst) CD DB
                    - NOIP OT(2,SIZE) INCDIR(.,.\Generated_Source\PSoC3) OJ(.\DP8051\DP8051_Keil_951\Debug\cyfitter_cfg.obj)

line level    source

   1          /*******************************************************************************
   2          * FILENAME: cyfitter_cfg.c
   3          * PSoC Creator 3.0 Component Pack 7
   4          *
   5          * Description:
   6          * This file is automatically generated by PSoC Creator with device 
   7          * initialization code.  Except for the user defined sections in
   8          * CyClockStartupError(), this file should not be modified.
   9          *
  10          ********************************************************************************
  11          * Copyright 2013, Cypress Semiconductor Corporation.  All rights reserved.
  12          * You may use this file only in accordance with the license, terms, conditions, 
  13          * disclaimers, and limitations in the end user license agreement accompanying 
  14          * the software package with which this file was provided.
  15          ********************************************************************************/
  16          
  17          #include <string.h>
  18          #include <cytypes.h>
  19          #include <cydevice_trm.h>
  20          #include <cyfitter.h>
  21          #include <CyLib.h>
  22          #include <cyfitter_cfg.h>
  23          
  24          #define CY_NEED_CYCLOCKSTARTUPERROR 1
  25          
  26          
  27          #if defined(__C51__) || defined(__CX51__)
  28                  #define CYPACKED
  29                  #define CYPACKED_ATTR
  30                  #define CYALIGNED
  31                  #define DMAINITSEC
  32              #define CY_CFG_UNUSED
  33                  #define CY_CFG_MEMORY_BARRIER() do { } while (0)
  34          
  35          
  36          
  37                  #define CYMEMZERO(a,c) cymemzero((a),(c))
  38                  #define CYCONFIGCPY(d,s,c) cyconfigcpy((c),(s),(d))
  39                  #define CYCONFIGCPYCODE(d,s,c) cyconfigcpycode((c),(s),(d))
  40          #else
                      #error Unsupported toolchain
              #endif
  43          
  44          
  45          
  46          /* Clock startup error codes                                                   */
  47          #define CYCLOCKSTART_NO_ERROR    0u
  48          #define CYCLOCKSTART_XTAL_ERROR  1u
  49          #define CYCLOCKSTART_32KHZ_ERROR 2u
  50          #define CYCLOCKSTART_PLL_ERROR   3u
  51          
  52          #ifdef CY_NEED_CYCLOCKSTARTUPERROR
  53          /*******************************************************************************
C51 COMPILER V9.51   CYFITTER_CFG                                                          06/30/2014 14:50:27 PAGE 2   

  54          * Function Name: CyClockStartupError
  55          ********************************************************************************
  56          * Summary:
  57          *  If an error is encountered during clock configuration (crystal startup error,
  58          *  PLL lock error, etc.), the system will end up here.  Unless reimplemented by
  59          *  the customer, this function will stop in an infinite loop.
  60          *
  61          * Parameters:
  62          *   void
  63          *
  64          * Return:
  65          *   void
  66          *
  67          *******************************************************************************/
  68          CY_CFG_UNUSED
  69          static void CyClockStartupError(uint8 errorCode);
  70          CY_CFG_UNUSED
  71          static void CyClockStartupError(uint8 errorCode)
  72          {
  73   1          /* To remove the compiler warning if errorCode not used.                */
  74   1          errorCode = errorCode;
  75   1      
  76   1          /* `#START CyClockStartupError` */
  77   1      
  78   1          /* If we have a clock startup error (bad MHz crystal, PLL lock, etc)    */
  79   1          /* we will end up here to allow the customer to implement something to  */
  80   1          /* deal with the clock condition.                                       */
  81   1      
  82   1          /* `#END` */
  83   1      
  84   1          /* If nothing else, stop here since the clocks have not started         */
  85   1          /* correctly.                                                           */
  86   1          while(1) {}
  87   1      }
  88          #endif
  89          
  90          
  91          /*******************************************************************************
  92          * Function Name: cfg_dma_init
  93          ********************************************************************************
  94          * Summary:
  95          *  This function is used to copy device configuration data from constant values
  96          *  stored in memory into the proper chip configuration registers using DMA.  It
  97          *  pulls data out of the CFG_TD_LISTs to know exactly how/what to configure.
  98          *
  99          * Parameters:  
 100          *   void
 101          *
 102          * Return:
 103          *   void
 104          *
 105          *******************************************************************************/
 106          static void cfg_dma_init(void);
 107          static void cfg_dma_init(void)
 108          {
 109   1              /* TD structure for big-endian systems. Requires 2-byte endian swap */
 110   1              CYPACKED struct td_t {
 111   1                      uint16 size;
 112   1                      uint8 flags;
 113   1                      uint8 next_td_ptr;
 114   1                      uint16 src;
 115   1                      uint16 dest;
C51 COMPILER V9.51   CYFITTER_CFG                                                          06/30/2014 14:50:27 PAGE 3   

 116   1              } CYPACKED_ATTR;
 117   1      
 118   1              /* IOPORT_0 Address: CYDEV_PRTDSI_PRT0_BASE Size (bytes): 7 */
 119   1              DMAINITSEC static const uint8 CYCODE BS_IOPORT_0_VAL[] = {
 120   1                      0x20u, 0x00u, 0x00u, 0x00u, 0x0Fu, 0x00u, 0x00u};
 121   1      
 122   1              /* IOPORT_1 Address: CYDEV_PRTDSI_PRT1_BASE Size (bytes): 7 */
 123   1              DMAINITSEC static const uint8 CYCODE BS_IOPORT_1_VAL[] = {
 124   1                      0x00u, 0x00u, 0x00u, 0x00u, 0x04u, 0x00u, 0x00u};
 125   1      
 126   1              /* IOPORT_3 Address: CYDEV_PRTDSI_PRT3_BASE Size (bytes): 7 */
 127   1              DMAINITSEC static const uint8 CYCODE BS_IOPORT_3_VAL[] = {
 128   1                      0x00u, 0x08u, 0x00u, 0x00u, 0x00u, 0x00u, 0x00u};
 129   1      
 130   1              /* IOPORT_4 Address: CYDEV_PRTDSI_PRT4_BASE Size (bytes): 7 */
 131   1              DMAINITSEC static const uint8 CYCODE BS_IOPORT_4_VAL[] = {
 132   1                      0x00u, 0x00u, 0x00u, 0x00u, 0x03u, 0x00u, 0x00u};
 133   1      
 134   1              /* IOPORT_5 Address: CYDEV_PRTDSI_PRT5_BASE Size (bytes): 7 */
 135   1              DMAINITSEC static const uint8 CYCODE BS_IOPORT_5_VAL[] = {
 136   1                      0x20u, 0x01u, 0x00u, 0x00u, 0x06u, 0x00u, 0x00u};
 137   1      
 138   1              /* IOPORT_6 Address: CYDEV_PRTDSI_PRT6_BASE Size (bytes): 7 */
 139   1              DMAINITSEC static const uint8 CYCODE BS_IOPORT_6_VAL[] = {
 140   1                      0x00u, 0x00u, 0x00u, 0x00u, 0xE0u, 0x00u, 0x00u};
 141   1      
 142   1              /* IOPORT_7 Address: CYDEV_PRTDSI_PRT12_BASE Size (bytes): 6 */
 143   1              DMAINITSEC static const uint8 CYCODE BS_IOPORT_7_VAL[] = {
 144   1                      0x00u, 0x00u, 0x00u, 0x00u, 0xCCu, 0x00u};
 145   1      
 146   1              /* IDMUX_IRQ Address: CYREG_IDMUX_IRQ_CTL0 Size (bytes): 8 */
 147   1              DMAINITSEC static const uint8 CYCODE BS_IDMUX_IRQ_VAL[] = {
 148   1                      0xFFu, 0x3Fu, 0x00u, 0x00u, 0x00u, 0x00u, 0x00u, 0x00u};
 149   1      
 150   1              /* PICU_5 Address: CYDEV_PICU_INTTYPE_PICU5_BASE Size (bytes): 8 */
 151   1              DMAINITSEC static const uint8 CYCODE BS_PICU_5_VAL[] = {
 152   1                      0x00u, 0x00u, 0x02u, 0x00u, 0x00u, 0x00u, 0x00u, 0x00u};
 153   1      
 154   1              /* UDB_1_2_1_CONFIG Address: CYDEV_UCFG_B0_P3_U0_BASE Size (bytes): 128 */
 155   1              DMAINITSEC static const uint8 CYCODE BS_UDB_1_2_1_CONFIG_VAL[] = {
 156   1                      0x9Au, 0x00u, 0x01u, 0x00u, 0x00u, 0x00u, 0x00u, 0x01u, 0x1Bu, 0x04u, 0x80u, 0x00u, 0x20u, 0x00u, 0xC0u,
             - 0x00u, 
 157   1                      0x9Bu, 0x00u, 0x00u, 0x03u, 0x04u, 0x00u, 0x1Au, 0x00u, 0x9Bu, 0x00u, 0x00u, 0x00u, 0x24u, 0x00u, 0xC8u,
             - 0x00u, 
 158   1                      0x9Bu, 0x00u, 0x00u, 0x00u, 0x02u, 0x00u, 0x64u, 0x00u, 0xE4u, 0x00u, 0x10u, 0x00u, 0x00u, 0x00u, 0x01u,
             - 0x00u, 
 159   1                      0x00u, 0x01u, 0x1Eu, 0x04u, 0x01u, 0x02u, 0xE0u, 0x00u, 0x00u, 0x00u, 0x88u, 0x00u, 0x00u, 0x00u, 0x10u,
             - 0x04u, 
 160   1                      0x00u, 0x00u, 0x00u, 0x00u, 0x00u, 0x00u, 0x00u, 0x00u, 0x00u, 0x00u, 0x00u, 0x00u, 0x00u, 0x00u, 0x00u,
             - 0x00u, 
 161   1                      0x00u, 0x00u, 0x80u, 0x00u, 0x00u, 0x00u, 0x00u, 0x00u, 0x04u, 0x04u, 0x00u, 0x04u, 0x41u, 0x40u, 0x00u,
             - 0x01u, 
 162   1                      0x00u, 0x00u, 0x00u, 0x00u, 0x00u, 0x00u, 0x00u, 0x00u, 0x00u, 0x00u, 0x00u, 0x00u, 0x00u, 0x00u, 0x00u,
             - 0x00u, 
 163   1                      0x00u, 0x00u, 0x00u, 0x00u, 0x00u, 0x00u, 0x00u, 0x00u, 0x00u, 0x00u, 0x00u, 0x00u, 0x00u, 0x00u, 0x00u,
             - 0x00u};
 164   1      
 165   1              /* UDB_1_2_0_CONFIG Address: CYDEV_UCFG_B0_P3_U1_BASE Size (bytes): 128 */
 166   1              DMAINITSEC static const uint8 CYCODE BS_UDB_1_2_0_CONFIG_VAL[] = {
 167   1                      0x01u, 0x03u, 0x0Eu, 0x10u, 0xE7u, 0x80u, 0x18u, 0x0Cu, 0x1Eu, 0x04u, 0x01u, 0x00u, 0x23u, 0x43u, 0xDCu,
             - 0x3Cu, 
 168   1                      0xDDu, 0x00u, 0x22u, 0x33u, 0x00u, 0x4Cu, 0xD0u, 0x33u, 0xC6u, 0x4Fu, 0x39u, 0x30u, 0x00u, 0x80u, 0x00u,
C51 COMPILER V9.51   CYFITTER_CFG                                                          06/30/2014 14:50:27 PAGE 4   

             - 0x00u, 
 169   1                      0x00u, 0x00u, 0x00u, 0x00u, 0x90u, 0x08u, 0x00u, 0x00u, 0x50u, 0x02u, 0x00u, 0x20u, 0x00u, 0x7Du, 0x3Fu,
             - 0x00u, 
 170   1                      0xE0u, 0x3Fu, 0x1Fu, 0xC0u, 0x10u, 0x40u, 0x00u, 0x00u, 0x00u, 0x08u, 0x0Au, 0x02u, 0x00u, 0x00u, 0x00u,
             - 0x10u, 
 171   1                      0x00u, 0x00u, 0x00u, 0x00u, 0x00u, 0x00u, 0x00u, 0x00u, 0x00u, 0x00u, 0x00u, 0x00u, 0x00u, 0x00u, 0x00u,
             - 0x00u, 
 172   1                      0x00u, 0x00u, 0x00u, 0x00u, 0x1Au, 0x00u, 0x04u, 0x00u, 0x04u, 0x04u, 0x00u, 0x04u, 0x00u, 0x00u, 0x00u,
             - 0x01u, 
 173   1                      0x00u, 0x00u, 0x00u, 0x00u, 0x00u, 0x00u, 0x00u, 0x00u, 0x00u, 0x00u, 0x00u, 0x00u, 0x00u, 0x00u, 0x00u,
             - 0x00u, 
 174   1                      0x00u, 0x00u, 0x00u, 0x00u, 0x00u, 0x00u, 0x00u, 0x00u, 0x00u, 0x00u, 0x00u, 0x00u, 0x00u, 0x00u, 0x00u,
             - 0x00u};
 175   1      
 176   1              /* UDB_0_2_1_CONFIG Address: CYDEV_UCFG_B0_P4_U0_BASE Size (bytes): 128 */
 177   1              DMAINITSEC static const uint8 CYCODE BS_UDB_0_2_1_CONFIG_VAL[] = {
 178   1                      0x00u, 0x04u, 0x00u, 0x00u, 0x47u, 0x62u, 0x38u, 0x1Du, 0x49u, 0x46u, 0x36u, 0x00u, 0x00u, 0x46u, 0x80u,
             - 0x00u, 
 179   1                      0x24u, 0x0Fu, 0x12u, 0x20u, 0x38u, 0x42u, 0x07u, 0x04u, 0x00u, 0x00u, 0x40u, 0x10u, 0x5Bu, 0x42u, 0x24u,
             - 0x00u, 
 180   1                      0x00u, 0x42u, 0x00u, 0x04u, 0x6Du, 0x01u, 0x12u, 0x5Au, 0x6Du, 0x04u, 0x12u, 0x42u, 0x00u, 0x00u, 0x00u,
             - 0x00u, 
 181   1                      0x00u, 0x00u, 0x3Fu, 0x18u, 0xC0u, 0x65u, 0x00u, 0x07u, 0x00u, 0x00u, 0x00u, 0x20u, 0x00u, 0x00u, 0x00u,
             - 0x00u, 
 182   1                      0x56u, 0x01u, 0x03u, 0x00u, 0x02u, 0x0Eu, 0x0Cu, 0x00u, 0x05u, 0xFFu, 0xFFu, 0xFFu, 0x62u, 0xA0u, 0xF0u,
             - 0x41u, 
 183   1                      0x0Cu, 0x00u, 0x00u, 0x00u, 0x00u, 0x00u, 0x02u, 0x13u, 0x04u, 0x04u, 0x04u, 0x04u, 0x10u, 0x00u, 0x00u,
             - 0x01u, 
 184   1                      0x00u, 0x00u, 0x00u, 0x00u, 0x00u, 0x00u, 0x40u, 0x02u, 0x00u, 0x10u, 0x30u, 0x10u, 0x00u, 0x10u, 0x10u,
             - 0x12u, 
 185   1                      0x00u, 0x00u, 0x00u, 0x00u, 0x00u, 0x00u, 0x00u, 0x00u, 0x00u, 0x00u, 0x00u, 0x00u, 0x00u, 0x00u, 0x00u,
             - 0x00u};
 186   1      
 187   1              /* UDB_0_2_0_CONFIG Address: CYDEV_UCFG_B0_P4_U1_BASE Size (bytes): 128 */
 188   1              DMAINITSEC static const uint8 CYCODE BS_UDB_0_2_0_CONFIG_VAL[] = {
 189   1                      0x00u, 0x01u, 0x00u, 0x00u, 0x30u, 0x00u, 0xC9u, 0x00u, 0x00u, 0x00u, 0x0Fu, 0x00u, 0x00u, 0x00u, 0x00u,
             - 0x00u, 
 190   1                      0xFDu, 0x00u, 0x02u, 0x00u, 0x73u, 0x00u, 0x00u, 0x00u, 0x00u, 0x00u, 0x00u, 0x00u, 0x9Eu, 0x00u, 0x60u,
             - 0x00u, 
 191   1                      0x00u, 0x00u, 0x00u, 0x00u, 0x00u, 0x00u, 0x00u, 0x00u, 0x94u, 0x00u, 0x60u, 0x00u, 0xCFu, 0x00u, 0x30u,
             - 0x03u, 
 192   1                      0xFFu, 0x02u, 0x00u, 0x00u, 0x00u, 0x01u, 0x00u, 0x00u, 0x00u, 0x00u, 0x00u, 0x00u, 0x00u, 0x00u, 0x01u,
             - 0x10u, 
 193   1                      0x00u, 0x00u, 0x00u, 0x00u, 0x00u, 0x00u, 0x00u, 0x00u, 0x00u, 0x00u, 0x00u, 0x00u, 0x00u, 0x00u, 0x00u,
             - 0x00u, 
 194   1                      0x00u, 0x00u, 0x00u, 0x00u, 0x00u, 0x00u, 0x08u, 0x00u, 0x04u, 0x04u, 0x00u, 0x04u, 0x20u, 0x20u, 0x00u,
             - 0x01u, 
 195   1                      0x00u, 0x00u, 0x00u, 0x00u, 0x00u, 0x00u, 0x00u, 0x00u, 0x00u, 0x00u, 0x00u, 0x00u, 0x00u, 0x00u, 0x00u,
             - 0x00u, 
 196   1                      0x00u, 0x00u, 0x00u, 0x00u, 0x00u, 0x00u, 0x00u, 0x00u, 0x00u, 0x00u, 0x00u, 0x00u, 0x00u, 0x00u, 0x00u,
             - 0x00u};
 197   1      
 198   1              /* UDB_0_3_0_CONFIG Address: CYDEV_UCFG_B0_P5_U0_BASE Size (bytes): 128 */
 199   1              DMAINITSEC static const uint8 CYCODE BS_UDB_0_3_0_CONFIG_VAL[] = {
 200   1                      0x00u, 0x00u, 0x00u, 0x00u, 0x00u, 0x03u, 0x00u, 0x00u, 0x00u, 0x1Du, 0x00u, 0x00u, 0x02u, 0x04u, 0x00u,
             - 0x08u, 
 201   1                      0x00u, 0x00u, 0x00u, 0x10u, 0x00u, 0x00u, 0x00u, 0x1Cu, 0x00u, 0x00u, 0x00u, 0x00u, 0x00u, 0x03u, 0x03u,
             - 0x00u, 
 202   1                      0x00u, 0x00u, 0x00u, 0x20u, 0x00u, 0x10u, 0x00u, 0x00u, 0x00u, 0x04u, 0x00u, 0x08u, 0x00u, 0x1Cu, 0x00u,
             - 0x00u, 
 203   1                      0x01u, 0x02u, 0x00u, 0x3Cu, 0x00u, 0x01u, 0x02u, 0x00u, 0x00u, 0x22u, 0x00u, 0x00u, 0x00u, 0x00u, 0x40u,
             - 0x10u, 
C51 COMPILER V9.51   CYFITTER_CFG                                                          06/30/2014 14:50:27 PAGE 5   

 204   1                      0x62u, 0x03u, 0x00u, 0x00u, 0x00u, 0x4Eu, 0xC3u, 0x02u, 0x1Fu, 0xFFu, 0xFFu, 0xFFu, 0x00u, 0xA0u, 0x00u,
             - 0x01u, 
 205   1                      0x18u, 0x00u, 0x00u, 0x00u, 0x00u, 0x00u, 0x00u, 0x00u, 0x04u, 0x04u, 0x04u, 0x00u, 0x33u, 0x03u, 0x00u,
             - 0x01u, 
 206   1                      0x40u, 0x00u, 0x80u, 0x00u, 0x40u, 0x40u, 0x80u, 0x00u, 0x40u, 0x00u, 0x80u, 0x00u, 0x40u, 0x20u, 0x80u,
             - 0x00u, 
 207   1                      0x00u, 0x00u, 0x00u, 0x00u, 0x00u, 0x00u, 0x00u, 0x00u, 0x00u, 0x00u, 0x00u, 0x00u, 0x00u, 0x00u, 0x00u,
             - 0x00u};
 208   1      
 209   1              /* UDB_0_3_1_CONFIG Address: CYDEV_UCFG_B0_P5_U1_BASE Size (bytes): 128 */
 210   1              DMAINITSEC static const uint8 CYCODE BS_UDB_0_3_1_CONFIG_VAL[] = {
 211   1                      0x00u, 0x09u, 0x08u, 0x10u, 0x00u, 0x20u, 0x00u, 0x40u, 0x00u, 0x00u, 0x00u, 0x10u, 0x00u, 0x20u, 0x00u,
             - 0x40u, 
 212   1                      0x05u, 0x1Cu, 0x00u, 0x02u, 0x00u, 0x10u, 0x00u, 0x0Cu, 0x00u, 0x0Cu, 0x08u, 0x11u, 0x00u, 0x80u, 0x07u,
             - 0x03u, 
 213   1                      0x00u, 0x60u, 0x00u, 0x00u, 0x00u, 0x14u, 0x01u, 0x00u, 0x00u, 0x20u, 0x00u, 0x40u, 0x00u, 0x20u, 0x00u,
             - 0x40u, 
 214   1                      0x02u, 0x00u, 0x01u, 0x60u, 0x04u, 0x80u, 0x08u, 0x1Fu, 0x00u, 0x00u, 0x00u, 0x00u, 0x00u, 0x00u, 0x54u,
             - 0x10u, 
 215   1                      0x00u, 0x00u, 0x00u, 0x00u, 0x00u, 0x00u, 0x00u, 0x00u, 0x00u, 0x00u, 0x00u, 0x00u, 0x00u, 0x00u, 0x00u,
             - 0x00u, 
 216   1                      0x00u, 0x00u, 0x00u, 0x00u, 0x00u, 0x00u, 0x08u, 0x00u, 0x04u, 0x04u, 0x00u, 0x04u, 0x02u, 0x20u, 0x00u,
             - 0x01u, 
 217   1                      0x00u, 0x00u, 0x00u, 0x00u, 0x00u, 0x00u, 0x00u, 0x00u, 0x00u, 0x00u, 0x00u, 0x00u, 0x00u, 0x00u, 0x00u,
             - 0x00u, 
 218   1                      0x00u, 0x00u, 0x00u, 0x00u, 0x00u, 0x00u, 0x00u, 0x00u, 0x00u, 0x00u, 0x00u, 0x00u, 0x00u, 0x00u, 0x00u,
             - 0x00u};
 219   1      
 220   1              /* UDB_0_4_1_CONFIG Address: CYDEV_UCFG_B0_P6_U0_BASE Size (bytes): 128 */
 221   1              DMAINITSEC static const uint8 CYCODE BS_UDB_0_4_1_CONFIG_VAL[] = {
 222   1                      0x00u, 0x00u, 0x00u, 0x00u, 0x00u, 0x00u, 0x00u, 0x00u, 0x23u, 0x08u, 0x0Cu, 0x00u, 0x09u, 0x00u, 0x20u,
             - 0x00u, 
 223   1                      0x00u, 0x58u, 0x00u, 0x02u, 0x00u, 0x32u, 0x2Eu, 0x44u, 0x00u, 0x32u, 0x00u, 0x0Cu, 0x10u, 0x00u, 0x00u,
             - 0x00u, 
 224   1                      0x00u, 0x00u, 0x00u, 0x00u, 0x03u, 0x00u, 0x24u, 0x01u, 0x23u, 0x00u, 0x04u, 0x6Eu, 0x00u, 0x00u, 0x00u,
             - 0x01u, 
 225   1                      0x20u, 0x30u, 0x10u, 0x4Cu, 0x0Fu, 0x01u, 0x10u, 0x0Eu, 0x00u, 0x02u, 0x20u, 0x88u, 0x00u, 0x00u, 0x41u,
             - 0x11u, 
 226   1                      0x31u, 0x02u, 0x00u, 0x00u, 0x00u, 0xECu, 0x00u, 0x0Bu, 0x13u, 0xFFu, 0xFFu, 0xFFu, 0x00u, 0x00u, 0xF0u,
             - 0x44u, 
 227   1                      0x0Cu, 0x00u, 0x00u, 0x00u, 0x01u, 0x00u, 0x04u, 0x00u, 0x04u, 0x04u, 0x04u, 0x04u, 0x00u, 0x00u, 0x00u,
             - 0x01u, 
 228   1                      0x00u, 0x00u, 0x00u, 0x00u, 0x00u, 0x00u, 0xC0u, 0x00u, 0x00u, 0x00u, 0x40u, 0x02u, 0x00u, 0x00u, 0x00u,
             - 0x00u, 
 229   1                      0x00u, 0x00u, 0x00u, 0x00u, 0x00u, 0x00u, 0x00u, 0x00u, 0x00u, 0x00u, 0x00u, 0x00u, 0x00u, 0x00u, 0x00u,
             - 0x00u};
 230   1      
 231   1              /* UDB_0_4_0_CONFIG Address: CYDEV_UCFG_B0_P6_U1_BASE Size (bytes): 128 */
 232   1              DMAINITSEC static const uint8 CYCODE BS_UDB_0_4_0_CONFIG_VAL[] = {
 233   1                      0x00u, 0x00u, 0x00u, 0x0Cu, 0x02u, 0x08u, 0x00u, 0x04u, 0x00u, 0x00u, 0x00u, 0x00u, 0x00u, 0x02u, 0x00u,
             - 0x00u, 
 234   1                      0x00u, 0x00u, 0x00u, 0x00u, 0x00u, 0x00u, 0x00u, 0x00u, 0x00u, 0x00u, 0x03u, 0x00u, 0x00u, 0x00u, 0x00u,
             - 0x03u, 
 235   1                      0x00u, 0x00u, 0x00u, 0x00u, 0x00u, 0x00u, 0x00u, 0x00u, 0x00u, 0x00u, 0x00u, 0x00u, 0x00u, 0x00u, 0x00u,
             - 0x00u, 
 236   1                      0x02u, 0x01u, 0x00u, 0x02u, 0x01u, 0x08u, 0x00u, 0x04u, 0x00u, 0x00u, 0x00u, 0x00u, 0x00u, 0x00u, 0x01u,
             - 0x54u, 
 237   1                      0x00u, 0x00u, 0x00u, 0x00u, 0x00u, 0x00u, 0x00u, 0x00u, 0x00u, 0x00u, 0x00u, 0x00u, 0x00u, 0x00u, 0x00u,
             - 0x00u, 
 238   1                      0x00u, 0x00u, 0x00u, 0x00u, 0x0Fu, 0x00u, 0x00u, 0x00u, 0x04u, 0x04u, 0x00u, 0x04u, 0x33u, 0x30u, 0x00u,
             - 0x05u, 
 239   1                      0x00u, 0x00u, 0x00u, 0x00u, 0x00u, 0x00u, 0x00u, 0x00u, 0x00u, 0x00u, 0x00u, 0x00u, 0x00u, 0x00u, 0x00u,
C51 COMPILER V9.51   CYFITTER_CFG                                                          06/30/2014 14:50:27 PAGE 6   

             - 0x00u, 
 240   1                      0x00u, 0x00u, 0x00u, 0x00u, 0x00u, 0x00u, 0x00u, 0x00u, 0x00u, 0x00u, 0x00u, 0x00u, 0x00u, 0x00u, 0x00u,
             - 0x00u};
 241   1      
 242   1              /* UDB_0_5_0_CONFIG Address: CYDEV_UCFG_B0_P7_U0_BASE Size (bytes): 128 */
 243   1              DMAINITSEC static const uint8 CYCODE BS_UDB_0_5_0_CONFIG_VAL[] = {
 244   1                      0x85u, 0x00u, 0x42u, 0x00u, 0x02u, 0x03u, 0xE4u, 0x00u, 0x00u, 0x00u, 0x00u, 0x08u, 0x00u, 0x00u, 0x19u,
             - 0x00u, 
 245   1                      0x87u, 0x06u, 0x20u, 0x00u, 0x00u, 0x00u, 0x00u, 0x00u, 0x08u, 0x00u, 0x00u, 0x00u, 0x00u, 0x00u, 0x00u,
             - 0x00u, 
 246   1                      0x66u, 0x06u, 0x81u, 0x00u, 0xE3u, 0x00u, 0x00u, 0x00u, 0x06u, 0x00u, 0x20u, 0x00u, 0x00u, 0x05u, 0x08u,
             - 0x00u, 
 247   1                      0x07u, 0x00u, 0x08u, 0x08u, 0x10u, 0x07u, 0xE4u, 0x00u, 0x00u, 0x20u, 0x00u, 0x00u, 0x00u, 0x00u, 0x04u,
             - 0x00u, 
 248   1                      0x00u, 0x00u, 0x00u, 0x00u, 0x00u, 0x00u, 0x00u, 0x00u, 0x00u, 0x00u, 0x00u, 0x00u, 0x00u, 0x00u, 0x00u,
             - 0x00u, 
 249   1                      0x00u, 0x00u, 0x80u, 0x00u, 0x0Fu, 0x00u, 0x04u, 0x00u, 0x04u, 0x04u, 0x00u, 0x04u, 0x33u, 0x30u, 0x00u,
             - 0x01u, 
 250   1                      0x00u, 0x00u, 0x00u, 0x00u, 0x00u, 0x00u, 0x00u, 0x00u, 0x00u, 0x00u, 0x00u, 0x00u, 0x00u, 0x00u, 0x00u,
             - 0x00u, 
 251   1                      0x00u, 0x00u, 0x00u, 0x00u, 0x00u, 0x00u, 0x00u, 0x00u, 0x00u, 0x00u, 0x00u, 0x00u, 0x00u, 0x00u, 0x00u,
             - 0x00u};
 252   1      
 253   1              /* UDB_0_5_1_CONFIG Address: CYDEV_UCFG_B0_P7_U1_BASE Size (bytes): 128 */
 254   1              DMAINITSEC static const uint8 CYCODE BS_UDB_0_5_1_CONFIG_VAL[] = {
 255   1                      0x01u, 0x00u, 0x02u, 0x00u, 0x01u, 0x00u, 0x06u, 0x00u, 0x00u, 0x02u, 0x00u, 0x01u, 0x00u, 0x01u, 0x00u,
             - 0x02u, 
 256   1                      0x00u, 0x01u, 0x00u, 0x06u, 0x01u, 0x00u, 0x0Au, 0x00u, 0x02u, 0x01u, 0x01u, 0x02u, 0x00u, 0x00u, 0x00u,
             - 0x00u, 
 257   1                      0x00u, 0x00u, 0x00u, 0x00u, 0x00u, 0x00u, 0x00u, 0x00u, 0x00u, 0x00u, 0x10u, 0x00u, 0x00u, 0x00u, 0x00u,
             - 0x08u, 
 258   1                      0x04u, 0x00u, 0x08u, 0x08u, 0x03u, 0x03u, 0x10u, 0x04u, 0x00u, 0x00u, 0x20u, 0x20u, 0x00u, 0x00u, 0x00u,
             - 0x00u, 
 259   1                      0x01u, 0x00u, 0x00u, 0x00u, 0x00u, 0x10u, 0x50u, 0x00u, 0x0Au, 0xFFu, 0x0Fu, 0xFFu, 0x40u, 0x20u, 0xF0u,
             - 0x05u, 
 260   1                      0x08u, 0x00u, 0x00u, 0x00u, 0x41u, 0x00u, 0x04u, 0x00u, 0x04u, 0x04u, 0x04u, 0x04u, 0x33u, 0x20u, 0x00u,
             - 0x01u, 
 261   1                      0x40u, 0xA8u, 0x40u, 0x20u, 0x00u, 0x00u, 0x00u, 0x00u, 0x00u, 0x00u, 0x00u, 0x00u, 0x00u, 0x00u, 0x00u,
             - 0x00u, 
 262   1                      0x00u, 0x00u, 0x00u, 0x00u, 0x00u, 0x00u, 0x00u, 0x00u, 0x00u, 0x00u, 0x00u, 0x00u, 0x00u, 0x00u, 0x00u,
             - 0x00u};
 263   1      
 264   1              /* UDB_1_1_1_CONFIG Address: CYDEV_UCFG_B1_P3_U0_BASE Size (bytes): 128 */
 265   1              DMAINITSEC static const uint8 CYCODE BS_UDB_1_1_1_CONFIG_VAL[] = {
 266   1                      0x00u, 0x00u, 0x00u, 0x00u, 0x00u, 0x13u, 0x00u, 0x2Cu, 0x00u, 0x00u, 0x00u, 0x00u, 0x00u, 0x00u, 0x00u,
             - 0x00u, 
 267   1                      0x1Cu, 0x65u, 0x00u, 0x1Au, 0x00u, 0x02u, 0x00u, 0x0Du, 0x06u, 0x49u, 0x09u, 0x06u, 0x0Bu, 0x00u, 0x14u,
             - 0x00u, 
 268   1                      0x00u, 0x40u, 0x00u, 0x00u, 0x00u, 0x00u, 0x00u, 0x00u, 0x08u, 0x00u, 0x13u, 0x00u, 0x00u, 0x00u, 0x00u,
             - 0x00u, 
 269   1                      0x1Eu, 0x00u, 0x00u, 0x70u, 0x01u, 0x0Fu, 0x00u, 0x00u, 0x02u, 0x00u, 0x00u, 0x28u, 0x00u, 0x00u, 0x10u,
             - 0x00u, 
 270   1                      0x30u, 0x05u, 0x00u, 0x00u, 0x00u, 0x01u, 0x02u, 0x00u, 0x05u, 0xFFu, 0xFFu, 0xFFu, 0x00u, 0xA0u, 0x00u,
             - 0x04u, 
 271   1                      0x18u, 0x00u, 0x00u, 0x00u, 0x40u, 0x00u, 0x00u, 0x00u, 0x04u, 0x04u, 0x04u, 0x04u, 0x11u, 0x14u, 0x00u,
             - 0x01u, 
 272   1                      0x40u, 0x00u, 0xC0u, 0x00u, 0x40u, 0x40u, 0xC0u, 0x00u, 0xC0u, 0x00u, 0xC0u, 0x00u, 0xC0u, 0x00u, 0xC0u,
             - 0x00u, 
 273   1                      0x00u, 0x00u, 0x00u, 0x00u, 0x00u, 0x00u, 0x00u, 0x00u, 0x00u, 0x00u, 0x00u, 0x00u, 0x00u, 0x00u, 0x00u,
             - 0x00u};
 274   1      
 275   1              /* UDB_1_1_0_CONFIG Address: CYDEV_UCFG_B1_P3_U1_BASE Size (bytes): 128 */
C51 COMPILER V9.51   CYFITTER_CFG                                                          06/30/2014 14:50:27 PAGE 7   

 276   1              DMAINITSEC static const uint8 CYCODE BS_UDB_1_1_0_CONFIG_VAL[] = {
 277   1                      0x00u, 0x00u, 0x40u, 0x00u, 0x00u, 0x00u, 0x01u, 0x00u, 0x00u, 0x00u, 0x88u, 0x00u, 0x10u, 0x1Du, 0x00u,
             - 0x60u, 
 278   1                      0xF3u, 0x00u, 0x04u, 0x75u, 0x00u, 0x00u, 0x30u, 0x7Du, 0x20u, 0x1Du, 0x00u, 0x60u, 0x0Fu, 0x00u, 0xF0u,
             - 0x00u, 
 279   1                      0x01u, 0x14u, 0x00u, 0x21u, 0x3Fu, 0x00u, 0xC0u, 0x02u, 0x35u, 0x10u, 0xCAu, 0x40u, 0x00u, 0x60u, 0xCEu,
             - 0x1Cu, 
 280   1                      0x00u, 0x04u, 0xFFu, 0x03u, 0x34u, 0x70u, 0x00u, 0x08u, 0x00u, 0x80u, 0x00u, 0x28u, 0x00u, 0x00u, 0x04u,
             - 0x00u, 
 281   1                      0x00u, 0x00u, 0x00u, 0x00u, 0x00u, 0x00u, 0x00u, 0x00u, 0x00u, 0x00u, 0x00u, 0x00u, 0x00u, 0x00u, 0x00u,
             - 0x00u, 
 282   1                      0x00u, 0x00u, 0x00u, 0x00u, 0x00u, 0x00u, 0x02u, 0x24u, 0x04u, 0x04u, 0x00u, 0x04u, 0x00u, 0x10u, 0x00u,
             - 0x01u, 
 283   1                      0x00u, 0x00u, 0x00u, 0x00u, 0x00u, 0x00u, 0x00u, 0x00u, 0x00u, 0x00u, 0x00u, 0x00u, 0x00u, 0x00u, 0x00u,
             - 0x00u, 
 284   1                      0x00u, 0x00u, 0x00u, 0x00u, 0x00u, 0x00u, 0x00u, 0x00u, 0x00u, 0x00u, 0x00u, 0x00u, 0x00u, 0x00u, 0x00u,
             - 0x00u};
 285   1      
 286   1              /* UDB_0_1_1_CONFIG Address: CYDEV_UCFG_B1_P4_U0_BASE Size (bytes): 128 */
 287   1              DMAINITSEC static const uint8 CYCODE BS_UDB_0_1_1_CONFIG_VAL[] = {
 288   1                      0x00u, 0x60u, 0x00u, 0x00u, 0x00u, 0x56u, 0x09u, 0x09u, 0x04u, 0x80u, 0x00u, 0x04u, 0x00u, 0x00u, 0x00u,
             - 0x00u, 
 289   1                      0x00u, 0x07u, 0x00u, 0x38u, 0x00u, 0x0Au, 0x01u, 0x10u, 0x00u, 0x01u, 0x02u, 0x00u, 0x00u, 0x04u, 0x00u,
             - 0x00u, 
 290   1                      0x04u, 0x04u, 0x00u, 0x80u, 0x04u, 0x84u, 0x00u, 0x00u, 0x00u, 0x84u, 0x00u, 0x00u, 0x00u, 0x84u, 0x00u,
             - 0x00u, 
 291   1                      0x04u, 0x00u, 0x08u, 0x7Fu, 0x03u, 0x00u, 0x00u, 0x80u, 0x00u, 0x08u, 0x00u, 0x00u, 0x00u, 0x00u, 0x11u,
             - 0x40u, 
 292   1                      0x63u, 0x04u, 0x50u, 0x00u, 0x02u, 0xCEu, 0xF0u, 0xBDu, 0x3Bu, 0xFFu, 0xFFu, 0xFFu, 0x22u, 0x00u, 0xF0u,
             - 0x08u, 
 293   1                      0x04u, 0x00u, 0x00u, 0x00u, 0x09u, 0x00u, 0x00u, 0x00u, 0x04u, 0x04u, 0x04u, 0x04u, 0x10u, 0x11u, 0x00u,
             - 0x01u, 
 294   1                      0x00u, 0x00u, 0xC0u, 0x00u, 0x40u, 0x01u, 0x10u, 0x11u, 0xC0u, 0x01u, 0x00u, 0x11u, 0x40u, 0x01u, 0x40u,
             - 0x01u, 
 295   1                      0x00u, 0x00u, 0x00u, 0x00u, 0x00u, 0x00u, 0x00u, 0x00u, 0x00u, 0x00u, 0x00u, 0x00u, 0x00u, 0x00u, 0x00u,
             - 0x00u};
 296   1      
 297   1              /* UDB_0_1_0_CONFIG Address: CYDEV_UCFG_B1_P4_U1_BASE Size (bytes): 128 */
 298   1              DMAINITSEC static const uint8 CYCODE BS_UDB_0_1_0_CONFIG_VAL[] = {
 299   1                      0x00u, 0x00u, 0x00u, 0x00u, 0x00u, 0x03u, 0x00u, 0xFCu, 0x00u, 0x77u, 0x00u, 0x00u, 0x00u, 0x00u, 0x00u,
             - 0x00u, 
 300   1                      0x00u, 0xCCu, 0x00u, 0x23u, 0x03u, 0x00u, 0x00u, 0x00u, 0x00u, 0x85u, 0x00u, 0x1Au, 0x00u, 0xCAu, 0x00u,
             - 0x15u, 
 301   1                      0x00u, 0x00u, 0x00u, 0x00u, 0x00u, 0x00u, 0x01u, 0x00u, 0x00u, 0x00u, 0x00u, 0x00u, 0x00u, 0xBFu, 0x00u,
             - 0x40u, 
 302   1                      0x00u, 0xF0u, 0x02u, 0x00u, 0x00u, 0x00u, 0x01u, 0x0Fu, 0x00u, 0x00u, 0x00u, 0x00u, 0x00u, 0x00u, 0x44u,
             - 0x00u, 
 303   1                      0x00u, 0x00u, 0x00u, 0x00u, 0x00u, 0x00u, 0x00u, 0x00u, 0x00u, 0x00u, 0x00u, 0x00u, 0x00u, 0x00u, 0x00u,
             - 0x00u, 
 304   1                      0x00u, 0x00u, 0x00u, 0x00u, 0x00u, 0x00u, 0x08u, 0x00u, 0x04u, 0x04u, 0x00u, 0x04u, 0x30u, 0x20u, 0x00u,
             - 0x01u, 
 305   1                      0x00u, 0x00u, 0x00u, 0x00u, 0x00u, 0x00u, 0x00u, 0x00u, 0x00u, 0x00u, 0x00u, 0x00u, 0x00u, 0x00u, 0x00u,
             - 0x00u, 
 306   1                      0x00u, 0x00u, 0x00u, 0x00u, 0x00u, 0x00u, 0x00u, 0x00u, 0x00u, 0x00u, 0x00u, 0x00u, 0x00u, 0x00u, 0x00u,
             - 0x00u};
 307   1      
 308   1              /* UDB_0_0_0_CONFIG Address: CYDEV_UCFG_B1_P5_U0_BASE Size (bytes): 128 */
 309   1              DMAINITSEC static const uint8 CYCODE BS_UDB_0_0_0_CONFIG_VAL[] = {
 310   1                      0x00u, 0x00u, 0x00u, 0x00u, 0x00u, 0x00u, 0x00u, 0x00u, 0x00u, 0x00u, 0x00u, 0x00u, 0x00u, 0x00u, 0x01u,
             - 0x00u, 
 311   1                      0x00u, 0x00u, 0x00u, 0x00u, 0x00u, 0x00u, 0x00u, 0x00u, 0x00u, 0x00u, 0x00u, 0x00u, 0x00u, 0x00u, 0x00u,
             - 0x00u, 
C51 COMPILER V9.51   CYFITTER_CFG                                                          06/30/2014 14:50:27 PAGE 8   

 312   1                      0x00u, 0x01u, 0x00u, 0x00u, 0x00u, 0x00u, 0x00u, 0x00u, 0x00u, 0x00u, 0x00u, 0x00u, 0x00u, 0x00u, 0x00u,
             - 0x00u, 
 313   1                      0x00u, 0x00u, 0x00u, 0x00u, 0x00u, 0x00u, 0x01u, 0x01u, 0x00u, 0x00u, 0x00u, 0x00u, 0x00u, 0x00u, 0x00u,
             - 0x40u, 
 314   1                      0x01u, 0x02u, 0x10u, 0x00u, 0x06u, 0x00u, 0x00u, 0x00u, 0x00u, 0xFFu, 0xFFu, 0xFFu, 0x02u, 0x00u, 0x70u,
             - 0x0Cu, 
 315   1                      0x8Cu, 0x10u, 0x00u, 0x00u, 0x20u, 0x00u, 0x04u, 0x00u, 0x04u, 0x04u, 0x24u, 0x04u, 0x08u, 0x28u, 0x00u,
             - 0x21u, 
 316   1                      0x00u, 0x00u, 0x00u, 0x00u, 0x00u, 0x00u, 0x00u, 0x00u, 0x40u, 0x01u, 0xC0u, 0x01u, 0x00u, 0x00u, 0x00u,
             - 0x00u, 
 317   1                      0x00u, 0x00u, 0x00u, 0x00u, 0x00u, 0x00u, 0x00u, 0x00u, 0x00u, 0x00u, 0x00u, 0x00u, 0x00u, 0x00u, 0x00u,
             - 0x00u};
 318   1      
 319   1              /* UDB_0_0_1_CONFIG Address: CYDEV_UCFG_B1_P5_U1_BASE Size (bytes): 128 */
 320   1              DMAINITSEC static const uint8 CYCODE BS_UDB_0_0_1_CONFIG_VAL[] = {
 321   1                      0x00u, 0x00u, 0x00u, 0x00u, 0x03u, 0xC3u, 0x1Cu, 0x08u, 0x24u, 0xC3u, 0xDBu, 0x10u, 0x00u, 0x00u, 0x00u,
             - 0x02u, 
 322   1                      0x92u, 0x43u, 0x49u, 0xA0u, 0xE0u, 0x00u, 0x1Cu, 0x00u, 0x1Cu, 0x00u, 0xE3u, 0x00u, 0x6Du, 0x00u, 0x92u,
             - 0x00u, 
 323   1                      0x00u, 0xC3u, 0x00u, 0x04u, 0xB6u, 0x00u, 0x49u, 0x00u, 0xB6u, 0x00u, 0x49u, 0x01u, 0x00u, 0x00u, 0x00u,
             - 0x3Cu, 
 324   1                      0x00u, 0x01u, 0x00u, 0x3Eu, 0x00u, 0x80u, 0xFFu, 0x40u, 0x00u, 0x00u, 0x00u, 0x00u, 0x00u, 0x00u, 0x40u,
             - 0x55u, 
 325   1                      0x01u, 0x03u, 0x10u, 0x00u, 0x02u, 0xFBu, 0xE0u, 0xCDu, 0x3Bu, 0xFFu, 0xFFu, 0xFFu, 0x23u, 0x00u, 0xF0u,
             - 0x0Cu, 
 326   1                      0x8Cu, 0x10u, 0x00u, 0x00u, 0x00u, 0x00u, 0x02u, 0x28u, 0x04u, 0x04u, 0x24u, 0x24u, 0x00u, 0x88u, 0x08u,
             - 0x31u, 
 327   1                      0x00u, 0x00u, 0x00u, 0x00u, 0x00u, 0x00u, 0x00u, 0x00u, 0x40u, 0x01u, 0xC0u, 0x01u, 0x00u, 0x00u, 0x00u,
             - 0x00u, 
 328   1                      0x00u, 0x00u, 0x00u, 0x00u, 0x00u, 0x00u, 0x00u, 0x00u, 0x00u, 0x00u, 0x00u, 0x00u, 0x00u, 0x00u, 0x00u,
             - 0x00u};
 329   1      
 330   1              /* UWRK_B0_WRK_STATCTL_BITS Address: CYDEV_UWRK_UWRK8_B0_BASE + 0x00000070u Size (bytes): 32 */
 331   1              DMAINITSEC static const uint8 CYCODE BS_UWRK_B0_WRK_STATCTL_BITS_VAL[] = {
 332   1                      0x00u, 0x00u, 0x00u, 0x00u, 0x00u, 0x00u, 0x00u, 0x00u, 0x00u, 0x00u, 0x00u, 0x00u, 0x00u, 0x00u, 0x00u,
             - 0x00u, 
 333   1                      0x00u, 0x00u, 0x00u, 0x00u, 0x00u, 0x00u, 0x00u, 0x3Au, 0x76u, 0x00u, 0x00u, 0x00u, 0x0Fu, 0x6Fu, 0x0Fu,
             - 0x47u};
 334   1      
 335   1              /* UWRK_B1_WRK_STATCTL_BITS Address: CYDEV_UWRK_UWRK8_B1_BASE + 0x00000070u Size (bytes): 32 */
 336   1              DMAINITSEC static const uint8 CYCODE BS_UWRK_B1_WRK_STATCTL_BITS_VAL[] = {
 337   1                      0x00u, 0x00u, 0x00u, 0x00u, 0x00u, 0x00u, 0x00u, 0x00u, 0x00u, 0x00u, 0x00u, 0x00u, 0x00u, 0x00u, 0x00u,
             - 0x00u, 
 338   1                      0x00u, 0x00u, 0x00u, 0x00u, 0x00u, 0x00u, 0x00u, 0x0Fu, 0x00u, 0x00u, 0x78u, 0x0Fu, 0x00u, 0x00u, 0x00u,
             - 0x00u};
 339   1      
 340   1              /* UCFG_BCTL1 Address: CYREG_BCTL1_MDCLK_EN Size (bytes): 16 */
 341   1              DMAINITSEC static const uint8 CYCODE BS_UCFG_BCTL1_VAL[] = {
 342   1                      0x1Fu, 0x00u, 0x00u, 0x00u, 0x00u, 0x00u, 0x00u, 0x00u, 0x00u, 0x00u, 0x13u, 0x00u, 0x0Fu, 0x00u, 0x00u,
             - 0x00u};
 343   1      
 344   1              /* UCFG_BCTL0 Address: CYREG_BCTL0_MDCLK_EN Size (bytes): 16 */
 345   1              DMAINITSEC static const uint8 CYCODE BS_UCFG_BCTL0_VAL[] = {
 346   1                      0x1Fu, 0x00u, 0x00u, 0x00u, 0x00u, 0x00u, 0x00u, 0x00u, 0x00u, 0x00u, 0x13u, 0x00u, 0x0Fu, 0x00u, 0x0Du,
             - 0x00u};
 347   1      
 348   1              /* DSISWITCH_0_0 Address: CYDEV_UCFG_DSI13_BASE Size (bytes): 128 */
 349   1              DMAINITSEC static const uint8 CYCODE BS_DSISWITCH_0_0_VAL[] = {
 350   1                      0x00u, 0x00u, 0x00u, 0x00u, 0x00u, 0x02u, 0x00u, 0x00u, 0x00u, 0x00u, 0x00u, 0x00u, 0x00u, 0x00u, 0x01u,
             - 0x00u, 
 351   1                      0x00u, 0x00u, 0x40u, 0x00u, 0x10u, 0x00u, 0x00u, 0x00u, 0x00u, 0x00u, 0x00u, 0x00u, 0x00u, 0x00u, 0x00u,
             - 0x00u, 
C51 COMPILER V9.51   CYFITTER_CFG                                                          06/30/2014 14:50:27 PAGE 9   

 352   1                      0x00u, 0x00u, 0x00u, 0x00u, 0x00u, 0x00u, 0x00u, 0x00u, 0x00u, 0x00u, 0x00u, 0x00u, 0x00u, 0x00u, 0x00u,
             - 0x00u, 
 353   1                      0x00u, 0x00u, 0x00u, 0x00u, 0x00u, 0x00u, 0x00u, 0x00u, 0x00u, 0x00u, 0x00u, 0x00u, 0x00u, 0x00u, 0x00u,
             - 0x00u, 
 354   1                      0x00u, 0x00u, 0x00u, 0x00u, 0x00u, 0x00u, 0x00u, 0x00u, 0x00u, 0x00u, 0x00u, 0x00u, 0x00u, 0x00u, 0x00u,
             - 0x00u, 
 355   1                      0x00u, 0x00u, 0x00u, 0x00u, 0x00u, 0x00u, 0x00u, 0x00u, 0x01u, 0x00u, 0x00u, 0x20u, 0x01u, 0x00u, 0x00u,
             - 0x00u, 
 356   1                      0x00u, 0x00u, 0x00u, 0x00u, 0x00u, 0x00u, 0x00u, 0x00u, 0x00u, 0x00u, 0x00u, 0x00u, 0x00u, 0x00u, 0x00u,
             - 0x00u, 
 357   1                      0x00u, 0x00u, 0x00u, 0x00u, 0x00u, 0x00u, 0x00u, 0x00u, 0x00u, 0x00u, 0x00u, 0x00u, 0x00u, 0x00u, 0x00u,
             - 0x00u};
 358   1      
 359   1              /* DSI0_0_HV_ROUTING Address: CYDEV_UCFG_DSI13_BASE + 0x00000080u Size (bytes): 128 */
 360   1              DMAINITSEC static const uint8 CYCODE BS_DSI0_0_HV_ROUTING_VAL[] = {
 361   1                      0x00u, 0x00u, 0x00u, 0x00u, 0x00u, 0x00u, 0x00u, 0x00u, 0x10u, 0x00u, 0x40u, 0x00u, 0x00u, 0x02u, 0x00u,
             - 0x00u, 
 362   1                      0x01u, 0x00u, 0x00u, 0x00u, 0x00u, 0x00u, 0x01u, 0x00u, 0x01u, 0x00u, 0x00u, 0x20u, 0x00u, 0x00u, 0x00u,
             - 0x00u, 
 363   1                      0x00u, 0x00u, 0x00u, 0x00u, 0x00u, 0x00u, 0x00u, 0x00u, 0x00u, 0x00u, 0x00u, 0x00u, 0x00u, 0x00u, 0x01u,
             - 0x00u, 
 364   1                      0x04u, 0x00u, 0x02u, 0x00u, 0x00u, 0x00u, 0x00u, 0x00u, 0x00u, 0x00u, 0x00u, 0x00u, 0x00u, 0x00u, 0x00u,
             - 0x00u, 
 365   1                      0x04u, 0x00u, 0x01u, 0x00u, 0x0Cu, 0x00u, 0x00u, 0x00u, 0x00u, 0x00u, 0x00u, 0x00u, 0x00u, 0x00u, 0x00u,
             - 0x00u, 
 366   1                      0x00u, 0x00u, 0x00u, 0x00u, 0x01u, 0x00u, 0x03u, 0x00u, 0x00u, 0x00u, 0x00u, 0x00u, 0x00u, 0x00u, 0x00u,
             - 0x00u, 
 367   1                      0x00u, 0x00u, 0x06u, 0x00u, 0x00u, 0x00u, 0x01u, 0x00u, 0x00u, 0x00u, 0x00u, 0x00u, 0x01u, 0x00u, 0x04u,
             - 0x00u, 
 368   1                      0x00u, 0x00u, 0x00u, 0x00u, 0x00u, 0x00u, 0x00u, 0x00u, 0x00u, 0x00u, 0x00u, 0x00u, 0x00u, 0x00u, 0x00u,
             - 0x00u};
 369   1      
 370   1              /* DSISWITCH_0_1 Address: CYDEV_UCFG_DSI12_BASE Size (bytes): 128 */
 371   1              DMAINITSEC static const uint8 CYCODE BS_DSISWITCH_0_1_VAL[] = {
 372   1                      0x00u, 0x00u, 0x02u, 0x00u, 0x00u, 0x00u, 0x00u, 0x00u, 0x00u, 0x00u, 0x00u, 0x00u, 0x00u, 0x00u, 0x00u,
             - 0x00u, 
 373   1                      0x00u, 0x00u, 0x00u, 0x00u, 0x00u, 0x00u, 0x00u, 0x00u, 0x00u, 0x00u, 0x00u, 0x00u, 0x00u, 0x00u, 0x00u,
             - 0x00u, 
 374   1                      0x00u, 0x00u, 0x00u, 0x00u, 0x00u, 0x00u, 0x00u, 0x00u, 0x00u, 0x00u, 0x00u, 0x00u, 0x00u, 0x00u, 0x00u,
             - 0x00u, 
 375   1                      0x00u, 0x00u, 0x00u, 0x00u, 0x00u, 0x00u, 0x00u, 0x00u, 0x00u, 0x00u, 0x00u, 0x00u, 0x00u, 0x00u, 0x00u,
             - 0x00u, 
 376   1                      0x00u, 0x00u, 0x00u, 0x00u, 0x00u, 0x00u, 0x00u, 0x00u, 0x00u, 0x00u, 0x00u, 0x00u, 0x00u, 0x00u, 0x00u,
             - 0x00u, 
 377   1                      0x00u, 0x00u, 0x00u, 0x00u, 0x00u, 0x00u, 0x00u, 0x00u, 0x04u, 0x00u, 0x00u, 0x00u, 0x00u, 0x00u, 0x00u,
             - 0x00u, 
 378   1                      0x00u, 0x00u, 0x00u, 0x00u, 0x00u, 0x00u, 0x00u, 0x00u, 0x00u, 0x00u, 0x00u, 0x00u, 0x00u, 0x00u, 0x00u,
             - 0x00u, 
 379   1                      0x00u, 0x00u, 0x00u, 0x00u, 0x00u, 0x00u, 0x00u, 0x00u, 0x00u, 0x00u, 0x00u, 0x00u, 0x00u, 0x00u, 0x00u,
             - 0x00u};
 380   1      
 381   1              /* DSI0_1_HV_ROUTING Address: CYDEV_UCFG_DSI12_BASE + 0x00000080u Size (bytes): 128 */
 382   1              DMAINITSEC static const uint8 CYCODE BS_DSI0_1_HV_ROUTING_VAL[] = {
 383   1                      0x00u, 0x00u, 0x00u, 0x00u, 0x01u, 0x00u, 0x00u, 0x00u, 0x00u, 0x00u, 0x00u, 0x00u, 0x00u, 0x00u, 0x00u,
             - 0x00u, 
 384   1                      0x01u, 0x00u, 0x00u, 0x00u, 0x00u, 0x00u, 0x00u, 0x00u, 0x00u, 0x00u, 0x00u, 0x20u, 0x00u, 0x00u, 0x00u,
             - 0x00u, 
 385   1                      0x00u, 0x00u, 0x00u, 0x00u, 0x00u, 0x00u, 0x00u, 0x00u, 0x00u, 0x00u, 0x00u, 0x00u, 0x00u, 0x00u, 0x00u,
             - 0x00u, 
 386   1                      0x00u, 0x00u, 0x00u, 0x00u, 0x00u, 0x00u, 0x00u, 0x00u, 0x00u, 0x00u, 0x00u, 0x00u, 0x00u, 0x00u, 0x00u,
             - 0x00u, 
 387   1                      0x02u, 0x00u, 0x00u, 0x00u, 0x00u, 0x00u, 0x00u, 0x00u, 0x00u, 0x00u, 0x00u, 0x00u, 0x00u, 0x00u, 0x00u,
C51 COMPILER V9.51   CYFITTER_CFG                                                          06/30/2014 14:50:27 PAGE 10  

             - 0x00u, 
 388   1                      0x00u, 0x00u, 0x00u, 0x00u, 0x00u, 0x00u, 0x02u, 0x00u, 0x00u, 0x00u, 0x00u, 0x00u, 0x00u, 0x00u, 0x00u,
             - 0x00u, 
 389   1                      0x00u, 0x00u, 0x00u, 0x00u, 0x00u, 0x00u, 0x00u, 0x00u, 0x00u, 0x00u, 0x00u, 0x00u, 0x00u, 0x00u, 0x00u,
             - 0x00u, 
 390   1                      0x00u, 0x00u, 0x00u, 0x00u, 0x00u, 0x00u, 0x00u, 0x00u, 0x00u, 0x00u, 0x00u, 0x00u, 0x00u, 0x00u, 0x00u,
             - 0x00u};
 391   1      
 392   1              /* DSI0_2_HV_ROUTING Address: CYDEV_UCFG_DSI7_BASE + 0x00000080u Size (bytes): 128 */
 393   1              DMAINITSEC static const uint8 CYCODE BS_DSI0_2_HV_ROUTING_VAL[] = {
 394   1                      0x00u, 0x00u, 0x00u, 0x00u, 0x00u, 0x00u, 0x00u, 0x00u, 0x00u, 0x00u, 0x00u, 0x00u, 0x01u, 0x00u, 0x00u,
             - 0x00u, 
 395   1                      0x00u, 0x00u, 0x00u, 0x00u, 0x00u, 0x00u, 0x00u, 0x00u, 0x00u, 0x00u, 0x00u, 0x20u, 0x00u, 0x00u, 0x00u,
             - 0x00u, 
 396   1                      0x00u, 0x00u, 0x00u, 0x00u, 0x00u, 0x00u, 0x00u, 0x00u, 0x00u, 0x00u, 0x00u, 0x00u, 0x00u, 0x00u, 0x00u,
             - 0x00u, 
 397   1                      0x00u, 0x00u, 0x00u, 0x00u, 0x00u, 0x00u, 0x00u, 0x00u, 0x00u, 0x00u, 0x00u, 0x00u, 0x00u, 0x00u, 0x00u,
             - 0x00u, 
 398   1                      0x00u, 0x00u, 0x00u, 0x00u, 0x00u, 0x00u, 0x00u, 0x00u, 0x00u, 0x00u, 0x00u, 0x00u, 0x00u, 0x00u, 0x00u,
             - 0x00u, 
 399   1                      0x00u, 0x00u, 0x00u, 0x00u, 0x00u, 0x00u, 0x00u, 0x00u, 0x00u, 0x00u, 0x00u, 0x00u, 0x00u, 0x00u, 0x00u,
             - 0x00u, 
 400   1                      0x00u, 0x00u, 0x00u, 0x00u, 0x08u, 0x00u, 0x00u, 0x00u, 0x00u, 0x00u, 0x00u, 0x00u, 0x00u, 0x00u, 0x00u,
             - 0x00u, 
 401   1                      0x00u, 0x00u, 0x00u, 0x00u, 0x00u, 0x00u, 0x00u, 0x00u, 0x00u, 0x00u, 0x00u, 0x00u, 0x00u, 0x00u, 0x00u,
             - 0x00u};
 402   1      
 403   1              /* DSI0_3_HV_ROUTING Address: CYDEV_UCFG_DSI6_BASE + 0x00000080u Size (bytes): 128 */
 404   1              DMAINITSEC static const uint8 CYCODE BS_DSI0_3_HV_ROUTING_VAL[] = {
 405   1                      0x00u, 0x00u, 0x00u, 0x00u, 0x00u, 0x00u, 0x00u, 0x00u, 0x00u, 0x00u, 0x00u, 0x00u, 0x00u, 0x00u, 0x00u,
             - 0x20u, 
 406   1                      0x00u, 0x00u, 0x00u, 0x00u, 0x00u, 0x00u, 0x00u, 0x00u, 0x00u, 0x00u, 0x00u, 0x00u, 0x00u, 0x00u, 0x00u,
             - 0x00u, 
 407   1                      0x00u, 0x00u, 0x00u, 0x00u, 0x00u, 0x00u, 0x00u, 0x00u, 0x00u, 0x00u, 0x00u, 0x00u, 0x00u, 0x00u, 0x00u,
             - 0x00u, 
 408   1                      0x00u, 0x00u, 0x00u, 0x00u, 0x00u, 0x00u, 0x00u, 0x00u, 0x00u, 0x00u, 0x00u, 0x00u, 0x00u, 0x00u, 0x00u,
             - 0x00u, 
 409   1                      0x00u, 0x00u, 0x00u, 0x00u, 0x00u, 0x00u, 0x00u, 0x00u, 0x00u, 0x00u, 0x00u, 0x00u, 0x00u, 0x00u, 0x00u,
             - 0x00u, 
 410   1                      0x00u, 0x00u, 0x00u, 0x00u, 0x00u, 0x00u, 0x00u, 0x00u, 0x00u, 0x00u, 0x00u, 0x00u, 0x00u, 0x00u, 0x00u,
             - 0x00u, 
 411   1                      0x00u, 0x00u, 0x00u, 0x00u, 0x08u, 0x00u, 0x00u, 0x00u, 0x00u, 0x00u, 0x00u, 0x00u, 0x00u, 0x00u, 0x00u,
             - 0x00u, 
 412   1                      0x00u, 0x00u, 0x00u, 0x00u, 0x00u, 0x00u, 0x00u, 0x00u, 0x00u, 0x00u, 0x00u, 0x00u, 0x00u, 0x00u, 0x00u,
             - 0x00u};
 413   1      
 414   1              /* DSI0_4_HV_ROUTING Address: CYDEV_UCFG_DSI5_BASE + 0x00000080u Size (bytes): 128 */
 415   1              DMAINITSEC static const uint8 CYCODE BS_DSI0_4_HV_ROUTING_VAL[] = {
 416   1                      0x00u, 0x00u, 0x00u, 0x00u, 0x00u, 0x00u, 0x00u, 0x00u, 0x00u, 0x00u, 0x00u, 0x00u, 0x00u, 0x00u, 0x00u,
             - 0x00u, 
 417   1                      0x00u, 0x00u, 0x00u, 0x00u, 0x00u, 0x00u, 0x00u, 0x00u, 0x00u, 0x00u, 0x00u, 0x00u, 0x00u, 0x00u, 0x00u,
             - 0x00u, 
 418   1                      0x00u, 0x00u, 0x00u, 0x00u, 0x00u, 0x00u, 0x00u, 0x00u, 0x00u, 0x00u, 0x00u, 0x01u, 0x00u, 0x00u, 0x00u,
             - 0x00u, 
 419   1                      0x00u, 0x00u, 0x00u, 0x00u, 0x00u, 0x28u, 0x00u, 0x00u, 0x00u, 0x00u, 0x00u, 0x00u, 0x00u, 0x00u, 0x00u,
             - 0x00u, 
 420   1                      0x00u, 0x00u, 0x00u, 0x00u, 0x00u, 0x00u, 0x00u, 0x00u, 0x00u, 0x00u, 0x00u, 0x00u, 0x00u, 0x00u, 0x00u,
             - 0x00u, 
 421   1                      0x00u, 0x00u, 0x00u, 0x00u, 0x00u, 0x00u, 0x00u, 0x00u, 0x00u, 0x00u, 0x00u, 0x00u, 0x00u, 0x00u, 0x00u,
             - 0x00u, 
 422   1                      0x00u, 0x00u, 0x00u, 0x00u, 0x00u, 0x00u, 0x00u, 0x00u, 0x00u, 0x00u, 0x00u, 0x00u, 0x00u, 0x00u, 0x0Au,
             - 0x00u, 
C51 COMPILER V9.51   CYFITTER_CFG                                                          06/30/2014 14:50:27 PAGE 11  

 423   1                      0x00u, 0x00u, 0x00u, 0x00u, 0x00u, 0x00u, 0x00u, 0x00u, 0x00u, 0x00u, 0x00u, 0x00u, 0x00u, 0x00u, 0x00u,
             - 0x00u};
 424   1      
 425   1              /* DSISWITCH_0_5 Address: CYDEV_UCFG_DSI4_BASE Size (bytes): 128 */
 426   1              DMAINITSEC static const uint8 CYCODE BS_DSISWITCH_0_5_VAL[] = {
 427   1                      0x00u, 0x00u, 0x00u, 0x00u, 0x00u, 0x00u, 0x00u, 0x00u, 0x00u, 0x20u, 0x00u, 0x00u, 0x00u, 0x08u, 0x00u,
             - 0x01u, 
 428   1                      0x00u, 0x00u, 0x00u, 0x00u, 0x00u, 0x00u, 0x00u, 0x00u, 0x00u, 0x00u, 0x00u, 0x00u, 0x00u, 0x00u, 0x00u,
             - 0x00u, 
 429   1                      0x00u, 0x00u, 0x00u, 0x00u, 0x00u, 0x00u, 0x00u, 0x00u, 0x00u, 0x00u, 0x00u, 0x00u, 0x00u, 0x00u, 0x00u,
             - 0x00u, 
 430   1                      0x00u, 0x00u, 0x00u, 0x00u, 0x00u, 0x00u, 0x00u, 0x00u, 0x00u, 0x00u, 0x00u, 0x00u, 0x00u, 0x00u, 0x00u,
             - 0x00u, 
 431   1                      0x00u, 0x00u, 0x00u, 0x00u, 0x00u, 0x00u, 0x00u, 0x00u, 0x00u, 0x00u, 0x00u, 0x00u, 0x00u, 0x00u, 0x00u,
             - 0x00u, 
 432   1                      0x00u, 0x00u, 0x00u, 0x00u, 0x00u, 0x00u, 0x00u, 0x00u, 0x00u, 0x00u, 0x00u, 0x00u, 0x00u, 0x00u, 0x00u,
             - 0x00u, 
 433   1                      0x00u, 0x00u, 0x00u, 0x00u, 0x00u, 0x00u, 0x00u, 0x00u, 0x00u, 0x00u, 0x00u, 0x00u, 0x00u, 0x00u, 0x00u,
             - 0x00u, 
 434   1                      0x00u, 0x00u, 0x00u, 0x00u, 0x00u, 0x00u, 0x00u, 0x00u, 0x00u, 0x00u, 0x00u, 0x00u, 0x00u, 0x00u, 0x00u,
             - 0x00u};
 435   1      
 436   1              /* DSI0_5_HV_ROUTING Address: CYDEV_UCFG_DSI4_BASE + 0x00000080u Size (bytes): 128 */
 437   1              DMAINITSEC static const uint8 CYCODE BS_DSI0_5_HV_ROUTING_VAL[] = {
 438   1                      0x00u, 0x00u, 0x00u, 0x00u, 0x00u, 0x00u, 0x00u, 0x00u, 0x00u, 0x00u, 0x00u, 0x00u, 0x00u, 0x00u, 0x00u,
             - 0x00u, 
 439   1                      0x00u, 0x00u, 0x00u, 0x00u, 0x00u, 0x00u, 0x00u, 0x00u, 0x00u, 0x00u, 0x00u, 0x00u, 0x00u, 0x00u, 0x00u,
             - 0x00u, 
 440   1                      0x00u, 0x00u, 0x00u, 0x00u, 0x00u, 0x00u, 0x00u, 0x00u, 0x00u, 0x00u, 0x00u, 0x00u, 0x00u, 0x00u, 0x00u,
             - 0x00u, 
 441   1                      0x00u, 0x00u, 0x00u, 0x00u, 0x00u, 0x00u, 0x00u, 0x00u, 0x00u, 0x00u, 0x00u, 0x00u, 0x00u, 0x00u, 0x00u,
             - 0x00u, 
 442   1                      0x00u, 0x00u, 0x07u, 0x00u, 0x00u, 0x00u, 0x00u, 0x00u, 0x00u, 0x00u, 0x00u, 0x00u, 0x00u, 0x00u, 0x00u,
             - 0x00u, 
 443   1                      0x00u, 0x00u, 0x00u, 0x00u, 0x00u, 0x00u, 0x00u, 0x00u, 0x00u, 0x00u, 0x00u, 0x00u, 0x00u, 0x00u, 0x00u,
             - 0x00u, 
 444   1                      0x00u, 0x00u, 0x00u, 0x00u, 0x00u, 0x00u, 0x00u, 0x00u, 0x00u, 0x00u, 0x00u, 0x00u, 0x00u, 0x00u, 0x00u,
             - 0x00u, 
 445   1                      0x00u, 0x00u, 0x00u, 0x00u, 0x00u, 0x00u, 0x00u, 0x00u, 0x00u, 0x00u, 0x00u, 0x00u, 0x00u, 0x00u, 0x00u,
             - 0x00u};
 446   1      
 447   1              /* UDBSWITCH_0_0 Address: CYDEV_UCFG_B1_P5_ROUTE_BASE Size (bytes): 128 */
 448   1              DMAINITSEC static const uint8 CYCODE BS_UDBSWITCH_0_0_VAL[] = {
 449   1                      0x80u, 0x00u, 0x00u, 0x00u, 0x20u, 0x08u, 0x00u, 0x00u, 0x00u, 0x00u, 0x00u, 0x00u, 0x00u, 0x00u, 0x6Au,
             - 0x00u, 
 450   1                      0x00u, 0x00u, 0x00u, 0x00u, 0x00u, 0x00u, 0x00u, 0x14u, 0x00u, 0x80u, 0x00u, 0x00u, 0x00u, 0x40u, 0x00u,
             - 0x00u, 
 451   1                      0x01u, 0x00u, 0x00u, 0x00u, 0x00u, 0x80u, 0x08u, 0x68u, 0x00u, 0x02u, 0x00u, 0x00u, 0x00u, 0x90u, 0x00u,
             - 0x88u, 
 452   1                      0x00u, 0x00u, 0x00u, 0x00u, 0x00u, 0x00u, 0x00u, 0x01u, 0x00u, 0x00u, 0x00u, 0x00u, 0x80u, 0x00u, 0x14u,
             - 0x00u, 
 453   1                      0x00u, 0x80u, 0x08u, 0x00u, 0x10u, 0x80u, 0x00u, 0x20u, 0x00u, 0x00u, 0x08u, 0x00u, 0x00u, 0x02u, 0x00u,
             - 0x04u, 
 454   1                      0x00u, 0x00u, 0x00u, 0x00u, 0x00u, 0x00u, 0x22u, 0x08u, 0x00u, 0x02u, 0x00u, 0x00u, 0x00u, 0x00u, 0x00u,
             - 0x00u, 
 455   1                      0x15u, 0x00u, 0x00u, 0x40u, 0x10u, 0x04u, 0x08u, 0x00u, 0x00u, 0x00u, 0x00u, 0x00u, 0x00u, 0x00u, 0x14u,
             - 0x81u, 
 456   1                      0x00u, 0x00u, 0x00u, 0x00u, 0x00u, 0x00u, 0x00u, 0x00u, 0x00u, 0x08u, 0x00u, 0x00u, 0x00u, 0x00u, 0x00u,
             - 0x50u};
 457   1      
 458   1              /* UDB_1_0_HV_ROUTING Address: CYDEV_UCFG_B1_P5_ROUTE_BASE + 0x00000080u Size (bytes): 128 */
 459   1              DMAINITSEC static const uint8 CYCODE BS_UDB_1_0_HV_ROUTING_VAL[] = {
C51 COMPILER V9.51   CYFITTER_CFG                                                          06/30/2014 14:50:27 PAGE 12  

 460   1                      0x00u, 0x00u, 0x00u, 0x00u, 0x40u, 0x10u, 0x00u, 0x40u, 0x00u, 0x04u, 0x00u, 0x50u, 0x00u, 0x08u, 0x00u,
             - 0x00u, 
 461   1                      0x34u, 0x00u, 0x40u, 0x00u, 0x00u, 0x00u, 0x00u, 0x24u, 0x00u, 0x04u, 0x00u, 0x14u, 0x40u, 0x48u, 0x22u,
             - 0x48u, 
 462   1                      0x40u, 0x00u, 0x15u, 0x00u, 0x00u, 0x00u, 0x00u, 0x00u, 0x12u, 0x00u, 0x00u, 0x00u, 0x14u, 0x00u, 0x10u,
             - 0x20u, 
 463   1                      0x40u, 0x00u, 0x01u, 0x00u, 0x00u, 0xC0u, 0x00u, 0x08u, 0x00u, 0x00u, 0x00u, 0x00u, 0x00u, 0x00u, 0x00u,
             - 0x00u, 
 464   1                      0x61u, 0x00u, 0xF0u, 0x00u, 0x60u, 0x00u, 0x00u, 0x00u, 0x00u, 0x00u, 0xB1u, 0x00u, 0x80u, 0x00u, 0x70u,
             - 0x00u, 
 465   1                      0x7Cu, 0x00u, 0x04u, 0x00u, 0x00u, 0x00u, 0x01u, 0x00u, 0x4Fu, 0x00u, 0x00u, 0x00u, 0x00u, 0x00u, 0xC2u,
             - 0x00u, 
 466   1                      0x00u, 0x00u, 0x40u, 0x00u, 0x00u, 0x00u, 0x00u, 0x00u, 0x40u, 0x00u, 0x08u, 0x00u, 0x00u, 0x00u, 0x00u,
             - 0x00u, 
 467   1                      0x00u, 0x00u, 0x00u, 0x00u, 0x00u, 0x00u, 0x00u, 0x00u, 0x00u, 0x00u, 0x00u, 0x00u, 0x00u, 0x00u, 0x00u,
             - 0x00u};
 468   1      
 469   1              /* UDB_2_0_HV_ROUTING Address: CYDEV_UCFG_B1_P2_ROUTE_BASE + 0x00000080u Size (bytes): 128 */
 470   1              DMAINITSEC static const uint8 CYCODE BS_UDB_2_0_HV_ROUTING_VAL[] = {
 471   1                      0x00u, 0x00u, 0x00u, 0x00u, 0x00u, 0x00u, 0x00u, 0x00u, 0x00u, 0x00u, 0x00u, 0x00u, 0x00u, 0x00u, 0x80u,
             - 0x00u, 
 472   1                      0x00u, 0x00u, 0x00u, 0x00u, 0x00u, 0x00u, 0x00u, 0x00u, 0x00u, 0x00u, 0x00u, 0x00u, 0x00u, 0x00u, 0x00u,
             - 0x00u, 
 473   1                      0x00u, 0x00u, 0x00u, 0x00u, 0x00u, 0x00u, 0x80u, 0x00u, 0x00u, 0x00u, 0x00u, 0x00u, 0x01u, 0x20u, 0x02u,
             - 0x20u, 
 474   1                      0x00u, 0x00u, 0x00u, 0x00u, 0x00u, 0x10u, 0x00u, 0x00u, 0x00u, 0x00u, 0x00u, 0x00u, 0x00u, 0x00u, 0x00u,
             - 0x00u, 
 475   1                      0x00u, 0x00u, 0x00u, 0x00u, 0x00u, 0x00u, 0x00u, 0x00u, 0x00u, 0x00u, 0x00u, 0x00u, 0x00u, 0x00u, 0x00u,
             - 0x00u, 
 476   1                      0x00u, 0x00u, 0x00u, 0x00u, 0x00u, 0x00u, 0x00u, 0x00u, 0x00u, 0x00u, 0x00u, 0x00u, 0x00u, 0x00u, 0x00u,
             - 0x00u, 
 477   1                      0x00u, 0x00u, 0x00u, 0x00u, 0x00u, 0x00u, 0x02u, 0x00u, 0x02u, 0x00u, 0x00u, 0x00u, 0x02u, 0x00u, 0x08u,
             - 0x00u, 
 478   1                      0x00u, 0x00u, 0x00u, 0x00u, 0x00u, 0x00u, 0x00u, 0x00u, 0x00u, 0x00u, 0x00u, 0x00u, 0x00u, 0x00u, 0x00u,
             - 0x00u};
 479   1      
 480   1              /* UDBSWITCH_0_1 Address: CYDEV_UCFG_B1_P4_ROUTE_BASE Size (bytes): 128 */
 481   1              DMAINITSEC static const uint8 CYCODE BS_UDBSWITCH_0_1_VAL[] = {
 482   1                      0x00u, 0x00u, 0x00u, 0x00u, 0x00u, 0x28u, 0x00u, 0x00u, 0x01u, 0x00u, 0x80u, 0x20u, 0x00u, 0x00u, 0x28u,
             - 0x00u, 
 483   1                      0x00u, 0x00u, 0x00u, 0x04u, 0x00u, 0x00u, 0x10u, 0x01u, 0x00u, 0x04u, 0x01u, 0x00u, 0x00u, 0x20u, 0x00u,
             - 0x29u, 
 484   1                      0x00u, 0x00u, 0x42u, 0x00u, 0x02u, 0x00u, 0x00u, 0x22u, 0x01u, 0x00u, 0x00u, 0x00u, 0x20u, 0x02u, 0x10u,
             - 0x02u, 
 485   1                      0x00u, 0x80u, 0x22u, 0x00u, 0x00u, 0x00u, 0x88u, 0x21u, 0x00u, 0x00u, 0x04u, 0x10u, 0x00u, 0x2Au, 0x00u,
             - 0x00u, 
 486   1                      0x00u, 0x00u, 0x00u, 0x00u, 0x04u, 0x04u, 0x10u, 0x01u, 0x00u, 0x00u, 0x00u, 0x00u, 0x05u, 0x24u, 0x08u,
             - 0x02u, 
 487   1                      0x00u, 0x00u, 0x00u, 0x00u, 0x10u, 0x01u, 0x08u, 0x00u, 0x40u, 0x00u, 0x00u, 0x00u, 0x00u, 0x54u, 0x00u,
             - 0x02u, 
 488   1                      0x02u, 0x00u, 0x00u, 0x00u, 0x00u, 0x00u, 0x00u, 0x02u, 0x00u, 0x00u, 0x00u, 0x00u, 0x00u, 0x00u, 0x00u,
             - 0x00u, 
 489   1                      0x00u, 0x00u, 0x00u, 0x00u, 0x00u, 0x00u, 0x00u, 0x00u, 0x00u, 0x00u, 0x00u, 0x00u, 0x00u, 0x00u, 0x00u,
             - 0x00u};
 490   1      
 491   1              /* UDB_1_1_HV_ROUTING Address: CYDEV_UCFG_B1_P4_ROUTE_BASE + 0x00000080u Size (bytes): 128 */
 492   1              DMAINITSEC static const uint8 CYCODE BS_UDB_1_1_HV_ROUTING_VAL[] = {
 493   1                      0x08u, 0x10u, 0x01u, 0x00u, 0x10u, 0x00u, 0x08u, 0x20u, 0xA0u, 0x50u, 0x00u, 0x0Bu, 0x08u, 0x02u, 0x10u,
             - 0x00u, 
 494   1                      0x2Cu, 0x00u, 0x40u, 0x10u, 0x00u, 0x00u, 0x10u, 0x00u, 0x00u, 0x00u, 0x04u, 0x15u, 0x19u, 0xC8u, 0x23u,
             - 0x40u, 
 495   1                      0x00u, 0x80u, 0xB5u, 0x00u, 0x88u, 0x64u, 0x02u, 0x01u, 0x10u, 0x00u, 0x00u, 0x40u, 0x01u, 0x00u, 0x00u,
C51 COMPILER V9.51   CYFITTER_CFG                                                          06/30/2014 14:50:27 PAGE 13  

             - 0x01u, 
 496   1                      0x00u, 0x00u, 0x80u, 0x00u, 0x00u, 0x00u, 0x00u, 0x00u, 0x00u, 0x00u, 0x00u, 0x00u, 0x00u, 0x00u, 0x00u,
             - 0x00u, 
 497   1                      0x60u, 0x00u, 0x64u, 0x00u, 0x34u, 0x00u, 0x00u, 0x00u, 0x00u, 0x00u, 0xF8u, 0x00u, 0xFDu, 0x00u, 0xE6u,
             - 0x00u, 
 498   1                      0xE0u, 0x00u, 0x30u, 0x00u, 0x00u, 0x00u, 0xF8u, 0x00u, 0x18u, 0x00u, 0x00u, 0x00u, 0x00u, 0x00u, 0x00u,
             - 0x00u, 
 499   1                      0x42u, 0x00u, 0xA0u, 0x00u, 0xB0u, 0x00u, 0x00u, 0x00u, 0x80u, 0x00u, 0x00u, 0x00u, 0x00u, 0x00u, 0x00u,
             - 0x00u, 
 500   1                      0x00u, 0x00u, 0x00u, 0x00u, 0x00u, 0x00u, 0x00u, 0x00u, 0x00u, 0x00u, 0x00u, 0x00u, 0x00u, 0x00u, 0x00u,
             - 0x00u};
 501   1      
 502   1              /* UDBSWITCH_1_1 Address: CYDEV_UCFG_B1_P3_ROUTE_BASE Size (bytes): 128 */
 503   1              DMAINITSEC static const uint8 CYCODE BS_UDBSWITCH_1_1_VAL[] = {
 504   1                      0x0Au, 0x00u, 0x00u, 0x09u, 0x00u, 0x00u, 0x00u, 0x00u, 0x10u, 0x48u, 0x40u, 0x00u, 0x00u, 0x00u, 0x82u,
             - 0x04u, 
 505   1                      0x02u, 0x00u, 0xA8u, 0x00u, 0x00u, 0x00u, 0x00u, 0x20u, 0x00u, 0x24u, 0x00u, 0x00u, 0x00u, 0x10u, 0x80u,
             - 0x00u, 
 506   1                      0x00u, 0x60u, 0x2Du, 0x00u, 0x04u, 0x00u, 0x00u, 0x20u, 0x00u, 0x04u, 0x02u, 0x09u, 0x00u, 0x00u, 0x00u,
             - 0x80u, 
 507   1                      0x02u, 0x20u, 0x04u, 0x00u, 0x08u, 0x00u, 0x01u, 0x20u, 0x40u, 0x00u, 0x00u, 0x00u, 0x00u, 0x00u, 0x00u,
             - 0x04u, 
 508   1                      0x00u, 0x00u, 0x00u, 0x00u, 0x00u, 0x00u, 0x00u, 0x08u, 0x00u, 0x00u, 0x00u, 0x00u, 0x00u, 0x00u, 0x00u,
             - 0x88u, 
 509   1                      0x00u, 0x00u, 0x00u, 0x00u, 0x00u, 0x00u, 0x00u, 0x40u, 0x00u, 0x00u, 0x00u, 0x00u, 0x00u, 0x00u, 0x00u,
             - 0x00u, 
 510   1                      0x0Cu, 0x00u, 0x00u, 0x00u, 0x06u, 0x00u, 0x00u, 0x20u, 0x50u, 0x42u, 0x04u, 0x04u, 0x00u, 0x00u, 0x00u,
             - 0x00u, 
 511   1                      0x40u, 0x00u, 0x00u, 0x00u, 0x00u, 0x00u, 0x00u, 0x00u, 0x00u, 0x00u, 0x00u, 0x00u, 0x00u, 0x00u, 0x00u,
             - 0x00u};
 512   1      
 513   1              /* UDB_2_1_HV_ROUTING Address: CYDEV_UCFG_B1_P3_ROUTE_BASE + 0x00000080u Size (bytes): 128 */
 514   1              DMAINITSEC static const uint8 CYCODE BS_UDB_2_1_HV_ROUTING_VAL[] = {
 515   1                      0x00u, 0x20u, 0x00u, 0x04u, 0x06u, 0x00u, 0x00u, 0x00u, 0x54u, 0x00u, 0x00u, 0x80u, 0x41u, 0x40u, 0x80u,
             - 0x00u, 
 516   1                      0x40u, 0x00u, 0x40u, 0x24u, 0x02u, 0x82u, 0x0Eu, 0x00u, 0x10u, 0x00u, 0x00u, 0x09u, 0x02u, 0x00u, 0x82u,
             - 0x24u, 
 517   1                      0x02u, 0x48u, 0x01u, 0x09u, 0x01u, 0x20u, 0x20u, 0x04u, 0x00u, 0x00u, 0x08u, 0x40u, 0x40u, 0x00u, 0x10u,
             - 0x04u, 
 518   1                      0x00u, 0x40u, 0x00u, 0x00u, 0x80u, 0x00u, 0x00u, 0x00u, 0x00u, 0x00u, 0x00u, 0x00u, 0x00u, 0x00u, 0x00u,
             - 0x00u, 
 519   1                      0x0Fu, 0x00u, 0xDFu, 0x00u, 0x4Fu, 0x00u, 0x00u, 0x00u, 0x00u, 0x00u, 0x8Fu, 0x00u, 0xE7u, 0x00u, 0x48u,
             - 0x00u, 
 520   1                      0x40u, 0x00u, 0x10u, 0x00u, 0x00u, 0x00u, 0x00u, 0x00u, 0x74u, 0x00u, 0x00u, 0x00u, 0x00u, 0x00u, 0x00u,
             - 0x00u, 
 521   1                      0x05u, 0x00u, 0x08u, 0x00u, 0x00u, 0x00u, 0x02u, 0x00u, 0x04u, 0x00u, 0x12u, 0x00u, 0x00u, 0x00u, 0x08u,
             - 0x00u, 
 522   1                      0x00u, 0x00u, 0x00u, 0x00u, 0x00u, 0x00u, 0x00u, 0x00u, 0x00u, 0x00u, 0x00u, 0x00u, 0x00u, 0x00u, 0x00u,
             - 0x00u};
 523   1      
 524   1              /* UDBSWITCH_0_2 Address: CYDEV_UCFG_B0_P4_ROUTE_BASE Size (bytes): 128 */
 525   1              DMAINITSEC static const uint8 CYCODE BS_UDBSWITCH_0_2_VAL[] = {
 526   1                      0x28u, 0x00u, 0x20u, 0x00u, 0x20u, 0x48u, 0x00u, 0x00u, 0x01u, 0x80u, 0x01u, 0x10u, 0x00u, 0x00u, 0x6Au,
             - 0x00u, 
 527   1                      0x00u, 0x20u, 0x06u, 0x00u, 0x00u, 0x00u, 0x00u, 0x14u, 0x00u, 0x01u, 0x00u, 0x00u, 0x00u, 0x00u, 0x28u,
             - 0x00u, 
 528   1                      0x04u, 0x01u, 0x00u, 0x00u, 0x08u, 0x00u, 0x00u, 0x21u, 0x02u, 0x00u, 0x00u, 0x00u, 0x88u, 0x00u, 0x08u,
             - 0x00u, 
 529   1                      0x00u, 0x00u, 0x00u, 0x00u, 0x08u, 0x00u, 0x80u, 0x21u, 0x00u, 0x02u, 0x00u, 0x00u, 0x00u, 0x88u, 0x10u,
             - 0x02u, 
 530   1                      0x00u, 0x00u, 0x00u, 0x00u, 0x10u, 0x20u, 0x01u, 0x00u, 0x00u, 0x00u, 0x00u, 0x00u, 0x20u, 0x40u, 0x08u,
             - 0x00u, 
C51 COMPILER V9.51   CYFITTER_CFG                                                          06/30/2014 14:50:27 PAGE 14  

 531   1                      0x00u, 0x00u, 0x00u, 0x00u, 0x00u, 0x00u, 0x40u, 0x00u, 0x00u, 0x00u, 0x00u, 0x40u, 0x00u, 0x02u, 0x00u,
             - 0x00u, 
 532   1                      0x02u, 0x00u, 0x00u, 0x00u, 0x00u, 0x00u, 0x00u, 0x00u, 0x00u, 0x00u, 0x00u, 0x00u, 0x00u, 0x10u, 0x46u,
             - 0x94u, 
 533   1                      0x00u, 0x00u, 0x00u, 0x00u, 0x01u, 0x20u, 0x10u, 0x00u, 0x00u, 0x00u, 0x00u, 0x00u, 0x00u, 0x00u, 0x00u,
             - 0x00u};
 534   1      
 535   1              /* UDB_1_2_HV_ROUTING Address: CYDEV_UCFG_B0_P4_ROUTE_BASE + 0x00000080u Size (bytes): 128 */
 536   1              DMAINITSEC static const uint8 CYCODE BS_UDB_1_2_HV_ROUTING_VAL[] = {
 537   1                      0x00u, 0x02u, 0x00u, 0x00u, 0x00u, 0x00u, 0x10u, 0x00u, 0x00u, 0x20u, 0x00u, 0x00u, 0x04u, 0x40u, 0x08u,
             - 0x20u, 
 538   1                      0x00u, 0x00u, 0x01u, 0x10u, 0x00u, 0x10u, 0x44u, 0x00u, 0x00u, 0x00u, 0x00u, 0x00u, 0x11u, 0x81u, 0x62u,
             - 0x00u, 
 539   1                      0x14u, 0x10u, 0x08u, 0x00u, 0x20u, 0x00u, 0x02u, 0xC0u, 0x00u, 0x00u, 0x00u, 0x10u, 0x00u, 0x00u, 0x00u,
             - 0x00u, 
 540   1                      0x20u, 0x00u, 0x02u, 0x00u, 0x00u, 0x08u, 0x80u, 0x00u, 0x00u, 0x00u, 0x00u, 0x00u, 0x00u, 0x00u, 0x00u,
             - 0x00u, 
 541   1                      0xE6u, 0x00u, 0xFDu, 0x00u, 0x63u, 0x00u, 0x00u, 0x00u, 0x00u, 0x00u, 0xE8u, 0x00u, 0xF0u, 0x00u, 0xF1u,
             - 0x00u, 
 542   1                      0x70u, 0x00u, 0x30u, 0x00u, 0x00u, 0x00u, 0x88u, 0x00u, 0x08u, 0x00u, 0x00u, 0x00u, 0x00u, 0x00u, 0x00u,
             - 0x00u, 
 543   1                      0x40u, 0x00u, 0x30u, 0x00u, 0x00u, 0x00u, 0x00u, 0x00u, 0x40u, 0x00u, 0x00u, 0x00u, 0x10u, 0x00u, 0x00u,
             - 0x00u, 
 544   1                      0x00u, 0x00u, 0x00u, 0x00u, 0x00u, 0x00u, 0x00u, 0x00u, 0x00u, 0x00u, 0x00u, 0x00u, 0x00u, 0x00u, 0x00u,
             - 0x00u};
 545   1      
 546   1              /* UDBSWITCH_1_2 Address: CYDEV_UCFG_B0_P3_ROUTE_BASE Size (bytes): 128 */
 547   1              DMAINITSEC static const uint8 CYCODE BS_UDBSWITCH_1_2_VAL[] = {
 548   1                      0x42u, 0x00u, 0x20u, 0x08u, 0x02u, 0x40u, 0x00u, 0x04u, 0x00u, 0x08u, 0x48u, 0x00u, 0x00u, 0x01u, 0x26u,
             - 0x00u, 
 549   1                      0x1Au, 0x00u, 0x00u, 0x00u, 0x02u, 0x00u, 0x90u, 0x20u, 0x00u, 0x10u, 0x40u, 0x09u, 0x00u, 0x40u, 0x20u,
             - 0x10u, 
 550   1                      0x40u, 0x0Cu, 0x18u, 0x00u, 0x00u, 0x00u, 0x04u, 0x48u, 0x10u, 0x00u, 0x00u, 0x09u, 0x00u, 0x00u, 0x00u,
             - 0x00u, 
 551   1                      0x42u, 0x20u, 0x04u, 0x00u, 0x00u, 0x01u, 0x00u, 0x00u, 0x40u, 0x28u, 0x02u, 0x00u, 0x40u, 0x80u, 0x20u,
             - 0x08u, 
 552   1                      0x00u, 0x00u, 0x00u, 0x00u, 0x00u, 0x00u, 0x00u, 0x00u, 0x00u, 0x00u, 0x00u, 0x00u, 0x00u, 0x00u, 0x00u,
             - 0x00u, 
 553   1                      0x00u, 0x00u, 0x00u, 0x00u, 0x00u, 0x00u, 0x00u, 0x00u, 0x00u, 0x10u, 0x02u, 0x00u, 0x00u, 0x00u, 0x00u,
             - 0x00u, 
 554   1                      0x84u, 0x00u, 0x40u, 0x00u, 0x00u, 0x00u, 0x00u, 0x00u, 0x00u, 0x00u, 0x00u, 0x00u, 0x00u, 0x00u, 0x00u,
             - 0x00u, 
 555   1                      0x00u, 0x00u, 0x00u, 0x00u, 0x00u, 0x01u, 0x00u, 0x00u, 0x00u, 0x00u, 0x00u, 0x00u, 0x00u, 0x00u, 0x00u,
             - 0x00u};
 556   1      
 557   1              /* UDB_2_2_HV_ROUTING Address: CYDEV_UCFG_B0_P3_ROUTE_BASE + 0x00000080u Size (bytes): 128 */
 558   1              DMAINITSEC static const uint8 CYCODE BS_UDB_2_2_HV_ROUTING_VAL[] = {
 559   1                      0x00u, 0x00u, 0x10u, 0x00u, 0x08u, 0x10u, 0x00u, 0x01u, 0x10u, 0x00u, 0x00u, 0x00u, 0x40u, 0x00u, 0x01u,
             - 0x00u, 
 560   1                      0x04u, 0x00u, 0x00u, 0x00u, 0x00u, 0x80u, 0x00u, 0x00u, 0x00u, 0x00u, 0x60u, 0x00u, 0x00u, 0x00u, 0x00u,
             - 0x00u, 
 561   1                      0x02u, 0x00u, 0x00u, 0x00u, 0x00u, 0x00u, 0x04u, 0x00u, 0x02u, 0x00u, 0x00u, 0x00u, 0x00u, 0x00u, 0x00u,
             - 0x00u, 
 562   1                      0x00u, 0x00u, 0x00u, 0x00u, 0x00u, 0x40u, 0x04u, 0x00u, 0x00u, 0x00u, 0x00u, 0x00u, 0x00u, 0x00u, 0x00u,
             - 0x00u, 
 563   1                      0xDFu, 0x00u, 0xFEu, 0x00u, 0xF7u, 0x00u, 0x00u, 0x00u, 0x00u, 0x00u, 0x0Eu, 0x00u, 0x8Fu, 0x00u, 0x6Fu,
             - 0x00u, 
 564   1                      0x00u, 0x00u, 0x00u, 0x00u, 0x00u, 0x00u, 0x05u, 0x00u, 0x0Du, 0x00u, 0x00u, 0x00u, 0x00u, 0x00u, 0x00u,
             - 0x00u, 
 565   1                      0x00u, 0x00u, 0x02u, 0x00u, 0x04u, 0x00u, 0x00u, 0x00u, 0x00u, 0x00u, 0x04u, 0x00u, 0x00u, 0x00u, 0x00u,
             - 0x00u, 
 566   1                      0x00u, 0x00u, 0x00u, 0x00u, 0x00u, 0x00u, 0x00u, 0x00u, 0x00u, 0x00u, 0x00u, 0x00u, 0x00u, 0x00u, 0x00u,
C51 COMPILER V9.51   CYFITTER_CFG                                                          06/30/2014 14:50:27 PAGE 15  

             - 0x00u};
 567   1      
 568   1              /* UDBSWITCH_0_3 Address: CYDEV_UCFG_B0_P5_ROUTE_BASE Size (bytes): 128 */
 569   1              DMAINITSEC static const uint8 CYCODE BS_UDBSWITCH_0_3_VAL[] = {
 570   1                      0x08u, 0x00u, 0x00u, 0x22u, 0x00u, 0x00u, 0x40u, 0x00u, 0x00u, 0x00u, 0x00u, 0x02u, 0x10u, 0x00u, 0x80u,
             - 0x01u, 
 571   1                      0x04u, 0x20u, 0x00u, 0x00u, 0x00u, 0x00u, 0x10u, 0x00u, 0x00u, 0x40u, 0x00u, 0x02u, 0x00u, 0x00u, 0x80u,
             - 0x58u, 
 572   1                      0x24u, 0x05u, 0x04u, 0x00u, 0x00u, 0x00u, 0x88u, 0x14u, 0x05u, 0x01u, 0x00u, 0x20u, 0x00u, 0x10u, 0x48u,
             - 0x80u, 
 573   1                      0x80u, 0x00u, 0x06u, 0x00u, 0x00u, 0x00u, 0x84u, 0x21u, 0x00u, 0xA0u, 0x00u, 0x18u, 0x02u, 0x00u, 0x04u,
             - 0xA0u, 
 574   1                      0x04u, 0x44u, 0x01u, 0x00u, 0x00u, 0x00u, 0x00u, 0x00u, 0x08u, 0x04u, 0x00u, 0x02u, 0x00u, 0x00u, 0x00u,
             - 0x00u, 
 575   1                      0x80u, 0x20u, 0x00u, 0x04u, 0x00u, 0x00u, 0x00u, 0x00u, 0x00u, 0x00u, 0x00u, 0x00u, 0x20u, 0x80u, 0x00u,
             - 0x00u, 
 576   1                      0x00u, 0x00u, 0x00u, 0x00u, 0x08u, 0x00u, 0x10u, 0x01u, 0x00u, 0x00u, 0x00u, 0x00u, 0x00u, 0x00u, 0x00u,
             - 0x00u, 
 577   1                      0x00u, 0x00u, 0x00u, 0x00u, 0x00u, 0x00u, 0x00u, 0x00u, 0x00u, 0x00u, 0x00u, 0x00u, 0x00u, 0x00u, 0x00u,
             - 0x00u};
 578   1      
 579   1              /* UDB_1_3_HV_ROUTING Address: CYDEV_UCFG_B0_P5_ROUTE_BASE + 0x00000080u Size (bytes): 128 */
 580   1              DMAINITSEC static const uint8 CYCODE BS_UDB_1_3_HV_ROUTING_VAL[] = {
 581   1                      0x00u, 0x00u, 0x00u, 0x00u, 0x00u, 0x00u, 0x00u, 0x40u, 0x00u, 0x00u, 0x00u, 0x48u, 0x00u, 0x00u, 0x00u,
             - 0x04u, 
 582   1                      0x00u, 0x20u, 0x01u, 0x00u, 0x00u, 0x0Au, 0x00u, 0x68u, 0x00u, 0x00u, 0x08u, 0x21u, 0x09u, 0x4Cu, 0xA0u,
             - 0x00u, 
 583   1                      0x0Du, 0x10u, 0x04u, 0x10u, 0xA0u, 0x20u, 0x02u, 0x00u, 0x00u, 0x00u, 0x00u, 0x08u, 0x00u, 0x00u, 0x00u,
             - 0x00u, 
 584   1                      0x00u, 0x01u, 0x00u, 0x00u, 0x00u, 0x00u, 0x00u, 0x00u, 0x00u, 0x00u, 0x00u, 0x00u, 0x00u, 0x00u, 0x00u,
             - 0x00u, 
 585   1                      0x11u, 0x00u, 0xD1u, 0x00u, 0x20u, 0x00u, 0x00u, 0x00u, 0x00u, 0x00u, 0xFFu, 0x00u, 0xFBu, 0x00u, 0xFEu,
             - 0x00u, 
 586   1                      0x06u, 0x00u, 0x04u, 0x00u, 0x00u, 0x00u, 0x30u, 0x00u, 0x30u, 0x00u, 0x00u, 0x00u, 0x00u, 0x00u, 0x00u,
             - 0x00u, 
 587   1                      0x00u, 0x00u, 0x00u, 0x00u, 0x00u, 0x00u, 0x00u, 0x00u, 0x00u, 0x00u, 0x00u, 0x00u, 0x00u, 0x00u, 0x80u,
             - 0x00u, 
 588   1                      0x00u, 0x00u, 0x00u, 0x00u, 0x00u, 0x00u, 0x00u, 0x00u, 0x00u, 0x00u, 0x00u, 0x00u, 0x00u, 0x00u, 0x00u,
             - 0x00u};
 589   1      
 590   1              /* UDB_2_3_HV_ROUTING Address: CYDEV_UCFG_B0_P2_ROUTE_BASE + 0x00000080u Size (bytes): 128 */
 591   1              DMAINITSEC static const uint8 CYCODE BS_UDB_2_3_HV_ROUTING_VAL[] = {
 592   1                      0x00u, 0x00u, 0x00u, 0x00u, 0x00u, 0x00u, 0x40u, 0x00u, 0x00u, 0x00u, 0x00u, 0x00u, 0x00u, 0x00u, 0x00u,
             - 0x00u, 
 593   1                      0x04u, 0x00u, 0x00u, 0x00u, 0x00u, 0x00u, 0x00u, 0x00u, 0x00u, 0x00u, 0x20u, 0x00u, 0x00u, 0x00u, 0x00u,
             - 0x00u, 
 594   1                      0x00u, 0x00u, 0x00u, 0x00u, 0x00u, 0x00u, 0x00u, 0x00u, 0x04u, 0x00u, 0x00u, 0x00u, 0x00u, 0x00u, 0x00u,
             - 0x00u, 
 595   1                      0x00u, 0x00u, 0x20u, 0x00u, 0x00u, 0x00u, 0x00u, 0x00u, 0x00u, 0x00u, 0x00u, 0x00u, 0x00u, 0x00u, 0x00u,
             - 0x00u, 
 596   1                      0x00u, 0x00u, 0x00u, 0x00u, 0x00u, 0x00u, 0x00u, 0x00u, 0x00u, 0x00u, 0x00u, 0x00u, 0x00u, 0x00u, 0x00u,
             - 0x00u, 
 597   1                      0x00u, 0x00u, 0x00u, 0x00u, 0x00u, 0x00u, 0x00u, 0x00u, 0x00u, 0x00u, 0x00u, 0x00u, 0x00u, 0x00u, 0x00u,
             - 0x00u, 
 598   1                      0x00u, 0x00u, 0x08u, 0x00u, 0x00u, 0x00u, 0x00u, 0x00u, 0x00u, 0x00u, 0x04u, 0x00u, 0x00u, 0x00u, 0x00u,
             - 0x00u, 
 599   1                      0x00u, 0x00u, 0x00u, 0x00u, 0x00u, 0x00u, 0x00u, 0x00u, 0x00u, 0x00u, 0x00u, 0x00u, 0x00u, 0x00u, 0x00u,
             - 0x00u};
 600   1      
 601   1              /* UDBSWITCH_0_4 Address: CYDEV_UCFG_B0_P6_ROUTE_BASE Size (bytes): 128 */
 602   1              DMAINITSEC static const uint8 CYCODE BS_UDBSWITCH_0_4_VAL[] = {
 603   1                      0x04u, 0x00u, 0x00u, 0x00u, 0x00u, 0x10u, 0x00u, 0x01u, 0x10u, 0x00u, 0x00u, 0x08u, 0x00u, 0x00u, 0x20u,
C51 COMPILER V9.51   CYFITTER_CFG                                                          06/30/2014 14:50:27 PAGE 16  

             - 0x02u, 
 604   1                      0x00u, 0x00u, 0x00u, 0x00u, 0x20u, 0x04u, 0x00u, 0x20u, 0x04u, 0x01u, 0x00u, 0x00u, 0x00u, 0x90u, 0x68u,
             - 0x08u, 
 605   1                      0x40u, 0x00u, 0x54u, 0x00u, 0x00u, 0x00u, 0x00u, 0x69u, 0x00u, 0x00u, 0x00u, 0x00u, 0x20u, 0x00u, 0x80u,
             - 0x08u, 
 606   1                      0x80u, 0x00u, 0x00u, 0x00u, 0x00u, 0x00u, 0x04u, 0x25u, 0x40u, 0x0Au, 0x00u, 0x00u, 0x20u, 0x00u, 0x00u,
             - 0x20u, 
 607   1                      0x00u, 0x00u, 0x00u, 0x00u, 0x00u, 0x80u, 0x00u, 0x24u, 0x00u, 0x00u, 0x00u, 0x00u, 0x00u, 0x05u, 0x00u,
             - 0x00u, 
 608   1                      0x00u, 0x00u, 0x00u, 0x00u, 0x00u, 0x00u, 0x08u, 0x00u, 0x10u, 0x41u, 0x08u, 0x00u, 0x20u, 0x09u, 0x40u,
             - 0x00u, 
 609   1                      0x00u, 0x24u, 0x00u, 0x00u, 0x00u, 0x02u, 0x00u, 0x00u, 0x00u, 0x00u, 0x00u, 0x00u, 0x00u, 0x00u, 0x00u,
             - 0x00u, 
 610   1                      0x00u, 0x00u, 0x00u, 0x00u, 0x00u, 0x00u, 0x00u, 0x00u, 0x00u, 0x20u, 0x00u, 0x00u, 0x00u, 0x00u, 0x00u,
             - 0x00u};
 611   1      
 612   1              /* UDB_1_4_HV_ROUTING Address: CYDEV_UCFG_B0_P6_ROUTE_BASE + 0x00000080u Size (bytes): 128 */
 613   1              DMAINITSEC static const uint8 CYCODE BS_UDB_1_4_HV_ROUTING_VAL[] = {
 614   1                      0x00u, 0x00u, 0x00u, 0x00u, 0x00u, 0x00u, 0x00u, 0x00u, 0x01u, 0x00u, 0x10u, 0x00u, 0x00u, 0x00u, 0x00u,
             - 0x00u, 
 615   1                      0x00u, 0x20u, 0x01u, 0x00u, 0x00u, 0x00u, 0xA0u, 0x60u, 0x00u, 0x00u, 0x00u, 0x00u, 0x09u, 0x02u, 0x20u,
             - 0x40u, 
 616   1                      0x1Cu, 0x10u, 0x00u, 0x01u, 0x00u, 0x00u, 0x02u, 0x00u, 0x00u, 0x02u, 0x00u, 0x00u, 0x00u, 0x00u, 0x00u,
             - 0x00u, 
 617   1                      0x00u, 0x00u, 0x00u, 0x00u, 0x10u, 0x00u, 0x80u, 0x00u, 0x00u, 0x00u, 0x00u, 0x00u, 0x00u, 0x00u, 0x00u,
             - 0x00u, 
 618   1                      0xC4u, 0x00u, 0xA2u, 0x00u, 0x60u, 0x00u, 0x00u, 0x00u, 0x00u, 0x00u, 0x70u, 0x00u, 0xE8u, 0x00u, 0x2Bu,
             - 0x00u, 
 619   1                      0x70u, 0x00u, 0x00u, 0x00u, 0x00u, 0x00u, 0xFFu, 0x00u, 0x86u, 0x00u, 0x00u, 0x00u, 0x00u, 0x00u, 0x04u,
             - 0x00u, 
 620   1                      0x00u, 0x00u, 0x00u, 0x00u, 0x00u, 0x00u, 0x00u, 0x00u, 0x00u, 0x00u, 0x01u, 0x00u, 0x00u, 0x00u, 0x00u,
             - 0x00u, 
 621   1                      0x00u, 0x00u, 0x00u, 0x00u, 0x00u, 0x00u, 0x00u, 0x00u, 0x00u, 0x00u, 0x00u, 0x00u, 0x00u, 0x00u, 0x00u,
             - 0x00u};
 622   1      
 623   1              /* UDB_2_4_HV_ROUTING Address: CYDEV_UCFG_B0_P1_ROUTE_BASE + 0x00000080u Size (bytes): 128 */
 624   1              DMAINITSEC static const uint8 CYCODE BS_UDB_2_4_HV_ROUTING_VAL[] = {
 625   1                      0x00u, 0x00u, 0x00u, 0x00u, 0x00u, 0x00u, 0x00u, 0x00u, 0x00u, 0x00u, 0x00u, 0x00u, 0x00u, 0x00u, 0x00u,
             - 0x00u, 
 626   1                      0x00u, 0x00u, 0x00u, 0x00u, 0x00u, 0x00u, 0x00u, 0x00u, 0x00u, 0x00u, 0x00u, 0x00u, 0x00u, 0x00u, 0x00u,
             - 0x00u, 
 627   1                      0x00u, 0x00u, 0x00u, 0x00u, 0x00u, 0x00u, 0x00u, 0x00u, 0x00u, 0x00u, 0x00u, 0x00u, 0x00u, 0x00u, 0x00u,
             - 0x00u, 
 628   1                      0x00u, 0x00u, 0x00u, 0x00u, 0x00u, 0x00u, 0x00u, 0x00u, 0x00u, 0x00u, 0x00u, 0x00u, 0x00u, 0x00u, 0x00u,
             - 0x00u, 
 629   1                      0x00u, 0x00u, 0x00u, 0x00u, 0x00u, 0x00u, 0x00u, 0x00u, 0x00u, 0x00u, 0x00u, 0x00u, 0x00u, 0x00u, 0x00u,
             - 0x00u, 
 630   1                      0x00u, 0x00u, 0x00u, 0x00u, 0x00u, 0x00u, 0x00u, 0x00u, 0x00u, 0x00u, 0x00u, 0x00u, 0x00u, 0x00u, 0x00u,
             - 0x00u, 
 631   1                      0x00u, 0x00u, 0x00u, 0x00u, 0x00u, 0x00u, 0x00u, 0x00u, 0x00u, 0x00u, 0x01u, 0x00u, 0x00u, 0x00u, 0x04u,
             - 0x00u, 
 632   1                      0x00u, 0x00u, 0x00u, 0x00u, 0x00u, 0x00u, 0x00u, 0x00u, 0x00u, 0x00u, 0x00u, 0x00u, 0x00u, 0x00u, 0x00u,
             - 0x00u};
 633   1      
 634   1              /* UDBSWITCH_0_5 Address: CYDEV_UCFG_B0_P7_ROUTE_BASE Size (bytes): 128 */
 635   1              DMAINITSEC static const uint8 CYCODE BS_UDBSWITCH_0_5_VAL[] = {
 636   1                      0x08u, 0x00u, 0x00u, 0x82u, 0x00u, 0x05u, 0x00u, 0x00u, 0x00u, 0x02u, 0x04u, 0x00u, 0x00u, 0x04u, 0x08u,
             - 0x00u, 
 637   1                      0x02u, 0x20u, 0x20u, 0x02u, 0x00u, 0x00u, 0x00u, 0x20u, 0x00u, 0x00u, 0x15u, 0x82u, 0x08u, 0x05u, 0x0Au,
             - 0x00u, 
 638   1                      0x04u, 0x14u, 0x20u, 0x08u, 0x00u, 0x50u, 0x00u, 0x20u, 0x01u, 0x00u, 0x00u, 0x80u, 0x08u, 0x00u, 0x90u,
             - 0x00u, 
C51 COMPILER V9.51   CYFITTER_CFG                                                          06/30/2014 14:50:27 PAGE 17  

 639   1                      0x00u, 0x02u, 0x02u, 0x00u, 0x00u, 0x00u, 0x01u, 0x20u, 0x24u, 0x00u, 0x00u, 0x00u, 0x00u, 0xA0u, 0x00u,
             - 0x00u, 
 640   1                      0x00u, 0x00u, 0x00u, 0x00u, 0x20u, 0x00u, 0x20u, 0x40u, 0x00u, 0x00u, 0x00u, 0x00u, 0x00u, 0x00u, 0x00u,
             - 0x02u, 
 641   1                      0x00u, 0x00u, 0x00u, 0x00u, 0x10u, 0x00u, 0x00u, 0x00u, 0x01u, 0x00u, 0xA0u, 0x0Au, 0x28u, 0x00u, 0x00u,
             - 0x40u, 
 642   1                      0x80u, 0x00u, 0x00u, 0x00u, 0x00u, 0x00u, 0x00u, 0xA0u, 0x00u, 0x00u, 0x00u, 0x00u, 0x00u, 0x00u, 0x00u,
             - 0x00u, 
 643   1                      0x02u, 0x00u, 0x00u, 0x00u, 0x00u, 0x00u, 0x00u, 0x00u, 0x00u, 0x00u, 0x00u, 0x00u, 0x00u, 0x00u, 0x00u,
             - 0x00u};
 644   1      
 645   1              /* UDB_1_5_HV_ROUTING Address: CYDEV_UCFG_B0_P7_ROUTE_BASE + 0x00000080u Size (bytes): 128 */
 646   1              DMAINITSEC static const uint8 CYCODE BS_UDB_1_5_HV_ROUTING_VAL[] = {
 647   1                      0x80u, 0x00u, 0x00u, 0x00u, 0x00u, 0x00u, 0x00u, 0x40u, 0x00u, 0x00u, 0x00u, 0x00u, 0x00u, 0x00u, 0x00u,
             - 0x00u, 
 648   1                      0x00u, 0x00u, 0x00u, 0x00u, 0x00u, 0x00u, 0x00u, 0x00u, 0x00u, 0x00u, 0x00u, 0x00u, 0x00u, 0x00u, 0x00u,
             - 0x00u, 
 649   1                      0x00u, 0x00u, 0x00u, 0x00u, 0x00u, 0x00u, 0x00u, 0x00u, 0x00u, 0x00u, 0x00u, 0x00u, 0x00u, 0x00u, 0x00u,
             - 0x00u, 
 650   1                      0x00u, 0x00u, 0x00u, 0x00u, 0x00u, 0x00u, 0x00u, 0x00u, 0x00u, 0x00u, 0x00u, 0x00u, 0x00u, 0x00u, 0x00u,
             - 0x00u, 
 651   1                      0x3Du, 0x00u, 0x6Au, 0x00u, 0x4Fu, 0x00u, 0x00u, 0x00u, 0x00u, 0x00u, 0x19u, 0x00u, 0xA1u, 0x00u, 0x36u,
             - 0x00u, 
 652   1                      0x10u, 0x00u, 0x00u, 0x00u, 0x00u, 0x00u, 0x7Fu, 0x00u, 0xC1u, 0x00u, 0x00u, 0x00u, 0x00u, 0x00u, 0x00u,
             - 0x00u, 
 653   1                      0x00u, 0x00u, 0x00u, 0x00u, 0x00u, 0x00u, 0x00u, 0x00u, 0x00u, 0x00u, 0x00u, 0x00u, 0x00u, 0x00u, 0x00u,
             - 0x00u, 
 654   1                      0x00u, 0x00u, 0x00u, 0x00u, 0x00u, 0x00u, 0x00u, 0x00u, 0x00u, 0x00u, 0x00u, 0x00u, 0x00u, 0x00u, 0x00u,
             - 0x00u};
 655   1      
 656   1              /* UDB_2_5_HV_ROUTING Address: CYDEV_UCFG_B0_P0_ROUTE_BASE + 0x00000080u Size (bytes): 128 */
 657   1              DMAINITSEC static const uint8 CYCODE BS_UDB_2_5_HV_ROUTING_VAL[] = {
 658   1                      0x00u, 0x00u, 0x00u, 0x00u, 0x00u, 0x00u, 0x00u, 0x00u, 0x00u, 0x00u, 0x00u, 0x00u, 0x00u, 0x00u, 0x00u,
             - 0x00u, 
 659   1                      0x00u, 0x00u, 0x00u, 0x00u, 0x00u, 0x00u, 0x00u, 0x00u, 0x00u, 0x00u, 0x00u, 0x00u, 0x00u, 0x00u, 0x00u,
             - 0x00u, 
 660   1                      0x00u, 0x00u, 0x00u, 0x00u, 0x00u, 0x00u, 0x00u, 0x00u, 0x00u, 0x00u, 0x00u, 0x00u, 0x00u, 0x00u, 0x00u,
             - 0x00u, 
 661   1                      0x00u, 0x00u, 0x00u, 0x00u, 0x00u, 0x00u, 0x00u, 0x00u, 0x00u, 0x00u, 0x00u, 0x00u, 0x00u, 0x00u, 0x00u,
             - 0x00u, 
 662   1                      0x00u, 0x00u, 0x00u, 0x00u, 0x00u, 0x00u, 0x00u, 0x00u, 0x00u, 0x00u, 0x00u, 0x00u, 0x00u, 0x00u, 0x00u,
             - 0x00u, 
 663   1                      0x00u, 0x00u, 0x00u, 0x00u, 0x00u, 0x00u, 0x00u, 0x00u, 0x00u, 0x00u, 0x00u, 0x00u, 0x00u, 0x00u, 0x00u,
             - 0x00u, 
 664   1                      0x00u, 0x00u, 0x08u, 0x00u, 0x00u, 0x00u, 0x01u, 0x00u, 0x00u, 0x00u, 0x00u, 0x00u, 0x00u, 0x00u, 0x00u,
             - 0x00u, 
 665   1                      0x00u, 0x00u, 0x00u, 0x00u, 0x00u, 0x00u, 0x00u, 0x00u, 0x00u, 0x00u, 0x00u, 0x00u, 0x00u, 0x00u, 0x00u,
             - 0x00u};
 666   1      
 667   1              /* DSISWITCH_1_0 Address: CYDEV_UCFG_DSI9_BASE Size (bytes): 128 */
 668   1              DMAINITSEC static const uint8 CYCODE BS_DSISWITCH_1_0_VAL[] = {
 669   1                      0x00u, 0x00u, 0x00u, 0x00u, 0x00u, 0x00u, 0x00u, 0x00u, 0x00u, 0x00u, 0x00u, 0x00u, 0x00u, 0x00u, 0x00u,
             - 0x00u, 
 670   1                      0x00u, 0x00u, 0x00u, 0x00u, 0x00u, 0x00u, 0x00u, 0x00u, 0x00u, 0x00u, 0x00u, 0x00u, 0x00u, 0x00u, 0x00u,
             - 0x00u, 
 671   1                      0x00u, 0x00u, 0x80u, 0x00u, 0x00u, 0x00u, 0x00u, 0x00u, 0x00u, 0x00u, 0x00u, 0x00u, 0x00u, 0x00u, 0x00u,
             - 0x00u, 
 672   1                      0x00u, 0x00u, 0x00u, 0x00u, 0x00u, 0x00u, 0x00u, 0x00u, 0x00u, 0x00u, 0x00u, 0x00u, 0x00u, 0x00u, 0x00u,
             - 0x00u, 
 673   1                      0x00u, 0x00u, 0x00u, 0x00u, 0x00u, 0x00u, 0x00u, 0x00u, 0x00u, 0x00u, 0x00u, 0x00u, 0x00u, 0x00u, 0x00u,
             - 0x00u, 
 674   1                      0x00u, 0x00u, 0x00u, 0x00u, 0x00u, 0x00u, 0x00u, 0x00u, 0x00u, 0x00u, 0x00u, 0x80u, 0x00u, 0x00u, 0x00u,
C51 COMPILER V9.51   CYFITTER_CFG                                                          06/30/2014 14:50:27 PAGE 18  

             - 0x00u, 
 675   1                      0x00u, 0x00u, 0x00u, 0x00u, 0x00u, 0x00u, 0x00u, 0x00u, 0x00u, 0x00u, 0x00u, 0x00u, 0x00u, 0x00u, 0x00u,
             - 0x00u, 
 676   1                      0x00u, 0x00u, 0x00u, 0x00u, 0x00u, 0x00u, 0x00u, 0x00u, 0x00u, 0x00u, 0x00u, 0x00u, 0x00u, 0x00u, 0x00u,
             - 0x00u};
 677   1      
 678   1              /* DSI3_0_HV_ROUTING Address: CYDEV_UCFG_DSI9_BASE + 0x00000080u Size (bytes): 128 */
 679   1              DMAINITSEC static const uint8 CYCODE BS_DSI3_0_HV_ROUTING_VAL[] = {
 680   1                      0x00u, 0x00u, 0x00u, 0x00u, 0x00u, 0x00u, 0x20u, 0x00u, 0x00u, 0x00u, 0x00u, 0x00u, 0x00u, 0x00u, 0x00u,
             - 0x00u, 
 681   1                      0x00u, 0x00u, 0x00u, 0x00u, 0x00u, 0x00u, 0x00u, 0x00u, 0x00u, 0x00u, 0x00u, 0x80u, 0x00u, 0x00u, 0x00u,
             - 0x00u, 
 682   1                      0x00u, 0x00u, 0x00u, 0x00u, 0x00u, 0x00u, 0xA0u, 0x00u, 0x00u, 0x00u, 0x00u, 0x00u, 0x00u, 0x00u, 0x00u,
             - 0x00u, 
 683   1                      0x00u, 0x00u, 0x00u, 0x00u, 0x00u, 0x00u, 0x00u, 0x00u, 0x00u, 0x00u, 0x00u, 0x00u, 0x00u, 0x00u, 0x00u,
             - 0x00u, 
 684   1                      0x00u, 0x00u, 0x00u, 0x00u, 0x00u, 0x00u, 0x00u, 0x00u, 0x10u, 0x00u, 0x00u, 0x00u, 0x00u, 0x00u, 0x00u,
             - 0x00u, 
 685   1                      0x00u, 0x00u, 0x00u, 0x00u, 0x80u, 0x00u, 0x00u, 0x00u, 0x00u, 0x00u, 0x00u, 0x00u, 0x00u, 0x00u, 0x00u,
             - 0x00u, 
 686   1                      0x00u, 0x00u, 0x00u, 0x00u, 0x00u, 0x00u, 0x40u, 0x00u, 0x00u, 0x00u, 0x00u, 0x00u, 0x00u, 0x00u, 0x00u,
             - 0x00u, 
 687   1                      0x00u, 0x00u, 0x00u, 0x00u, 0x00u, 0x00u, 0x00u, 0x00u, 0x00u, 0x00u, 0x00u, 0x00u, 0x00u, 0x00u, 0x00u,
             - 0x00u};
 688   1      
 689   1              /* DSI3_1_HV_ROUTING Address: CYDEV_UCFG_DSI8_BASE + 0x00000080u Size (bytes): 128 */
 690   1              DMAINITSEC static const uint8 CYCODE BS_DSI3_1_HV_ROUTING_VAL[] = {
 691   1                      0x00u, 0x00u, 0x00u, 0x00u, 0x00u, 0x00u, 0x00u, 0x00u, 0x00u, 0x00u, 0x00u, 0x00u, 0x00u, 0x00u, 0x00u,
             - 0x00u, 
 692   1                      0x00u, 0x00u, 0x00u, 0x00u, 0x00u, 0x00u, 0x00u, 0x00u, 0x00u, 0x00u, 0x00u, 0x80u, 0x00u, 0x00u, 0x00u,
             - 0x00u, 
 693   1                      0x00u, 0x00u, 0x00u, 0x00u, 0x00u, 0x00u, 0xA0u, 0x00u, 0x00u, 0x00u, 0x00u, 0x02u, 0x00u, 0x00u, 0x00u,
             - 0x00u, 
 694   1                      0x00u, 0x00u, 0x00u, 0x00u, 0x00u, 0x00u, 0x01u, 0x00u, 0x00u, 0x00u, 0x00u, 0x00u, 0x00u, 0x00u, 0x00u,
             - 0x00u, 
 695   1                      0x00u, 0x00u, 0x00u, 0x00u, 0x00u, 0x00u, 0x00u, 0x00u, 0x00u, 0x00u, 0x00u, 0x00u, 0x00u, 0x00u, 0x00u,
             - 0x00u, 
 696   1                      0x00u, 0x00u, 0x00u, 0x00u, 0x00u, 0x00u, 0x00u, 0x00u, 0x00u, 0x00u, 0x00u, 0x00u, 0x00u, 0x00u, 0x00u,
             - 0x00u, 
 697   1                      0x00u, 0x00u, 0x00u, 0x00u, 0x00u, 0x00u, 0x00u, 0x00u, 0x00u, 0x00u, 0x00u, 0x00u, 0x00u, 0x00u, 0x80u,
             - 0x00u, 
 698   1                      0x00u, 0x00u, 0x00u, 0x00u, 0x00u, 0x00u, 0x00u, 0x00u, 0x00u, 0x00u, 0x00u, 0x00u, 0x00u, 0x00u, 0x00u,
             - 0x00u};
 699   1      
 700   1              /* DSI3_2_HV_ROUTING Address: CYDEV_UCFG_DSI3_BASE + 0x00000080u Size (bytes): 128 */
 701   1              DMAINITSEC static const uint8 CYCODE BS_DSI3_2_HV_ROUTING_VAL[] = {
 702   1                      0x00u, 0x00u, 0x00u, 0x00u, 0x00u, 0x00u, 0x00u, 0x00u, 0x00u, 0x00u, 0x00u, 0x00u, 0x00u, 0x00u, 0x00u,
             - 0x00u, 
 703   1                      0x00u, 0x00u, 0x00u, 0x00u, 0x00u, 0x00u, 0x00u, 0x00u, 0x00u, 0x00u, 0x00u, 0x80u, 0x00u, 0x00u, 0x00u,
             - 0x02u, 
 704   1                      0x00u, 0x00u, 0x00u, 0x00u, 0x00u, 0x00u, 0xA1u, 0x00u, 0x00u, 0x00u, 0x00u, 0x00u, 0x00u, 0x00u, 0x00u,
             - 0x00u, 
 705   1                      0x00u, 0x00u, 0x00u, 0x00u, 0x00u, 0x00u, 0x00u, 0x00u, 0x00u, 0x00u, 0x00u, 0x00u, 0x00u, 0x00u, 0x00u,
             - 0x00u, 
 706   1                      0x00u, 0x00u, 0x00u, 0x00u, 0x00u, 0x00u, 0x00u, 0x00u, 0x00u, 0x00u, 0x00u, 0x00u, 0x00u, 0x00u, 0x00u,
             - 0x00u, 
 707   1                      0x00u, 0x00u, 0x00u, 0x00u, 0x00u, 0x00u, 0x00u, 0x00u, 0x00u, 0x00u, 0x00u, 0x00u, 0x00u, 0x00u, 0x00u,
             - 0x00u, 
 708   1                      0x00u, 0x00u, 0x00u, 0x00u, 0x00u, 0x00u, 0x00u, 0x00u, 0x00u, 0x00u, 0x00u, 0x00u, 0x00u, 0x00u, 0x00u,
             - 0x00u, 
 709   1                      0x00u, 0x00u, 0x00u, 0x00u, 0x00u, 0x00u, 0x00u, 0x00u, 0x00u, 0x00u, 0x00u, 0x00u, 0x00u, 0x00u, 0x00u,
             - 0x00u};
C51 COMPILER V9.51   CYFITTER_CFG                                                          06/30/2014 14:50:27 PAGE 19  

 710   1      
 711   1              /* DSI3_3_HV_ROUTING Address: CYDEV_UCFG_DSI2_BASE + 0x00000080u Size (bytes): 128 */
 712   1              DMAINITSEC static const uint8 CYCODE BS_DSI3_3_HV_ROUTING_VAL[] = {
 713   1                      0x00u, 0x00u, 0x00u, 0x00u, 0x00u, 0x00u, 0x00u, 0x00u, 0x00u, 0x00u, 0x00u, 0x00u, 0x00u, 0x00u, 0x00u,
             - 0x00u, 
 714   1                      0x00u, 0x00u, 0x00u, 0x00u, 0x00u, 0x00u, 0x00u, 0x00u, 0x00u, 0x00u, 0x00u, 0x80u, 0x00u, 0x00u, 0x00u,
             - 0x02u, 
 715   1                      0x00u, 0x00u, 0x00u, 0x00u, 0x00u, 0x00u, 0xA1u, 0x00u, 0x00u, 0x00u, 0x00u, 0x00u, 0x00u, 0x00u, 0x00u,
             - 0x00u, 
 716   1                      0x00u, 0x00u, 0x00u, 0x00u, 0x00u, 0x00u, 0x00u, 0x00u, 0x00u, 0x00u, 0x00u, 0x00u, 0x00u, 0x00u, 0x00u,
             - 0x00u, 
 717   1                      0x00u, 0x00u, 0x00u, 0x00u, 0x00u, 0x00u, 0x00u, 0x00u, 0x00u, 0x00u, 0x00u, 0x00u, 0x00u, 0x00u, 0x00u,
             - 0x00u, 
 718   1                      0x00u, 0x00u, 0x00u, 0x00u, 0x00u, 0x00u, 0x00u, 0x00u, 0x00u, 0x00u, 0x00u, 0x00u, 0x00u, 0x00u, 0x00u,
             - 0x00u, 
 719   1                      0x00u, 0x00u, 0x00u, 0x00u, 0x00u, 0x00u, 0x00u, 0x00u, 0x00u, 0x00u, 0x00u, 0x00u, 0x00u, 0x00u, 0x00u,
             - 0x00u, 
 720   1                      0x00u, 0x00u, 0x00u, 0x00u, 0x00u, 0x00u, 0x00u, 0x00u, 0x00u, 0x00u, 0x00u, 0x00u, 0x00u, 0x00u, 0x00u,
             - 0x00u};
 721   1      
 722   1              /* DSISWITCH_1_4 Address: CYDEV_UCFG_DSI1_BASE Size (bytes): 128 */
 723   1              DMAINITSEC static const uint8 CYCODE BS_DSISWITCH_1_4_VAL[] = {
 724   1                      0x00u, 0x00u, 0x00u, 0x00u, 0x00u, 0x00u, 0x00u, 0x00u, 0x00u, 0x00u, 0x00u, 0x00u, 0x00u, 0x00u, 0x00u,
             - 0x00u, 
 725   1                      0x00u, 0x00u, 0x00u, 0x00u, 0x00u, 0x00u, 0x00u, 0x00u, 0x00u, 0x00u, 0x00u, 0x00u, 0x00u, 0x00u, 0x00u,
             - 0x00u, 
 726   1                      0x00u, 0x00u, 0x00u, 0x00u, 0x00u, 0x00u, 0x00u, 0x00u, 0x00u, 0x00u, 0x00u, 0x00u, 0x00u, 0x00u, 0x00u,
             - 0x00u, 
 727   1                      0x00u, 0x40u, 0x00u, 0x00u, 0x00u, 0x20u, 0x00u, 0x00u, 0x00u, 0x00u, 0x00u, 0x00u, 0x00u, 0x00u, 0x00u,
             - 0x00u, 
 728   1                      0x00u, 0x00u, 0x00u, 0x00u, 0x00u, 0x00u, 0x00u, 0x00u, 0x00u, 0x40u, 0x01u, 0x00u, 0x00u, 0x00u, 0x00u,
             - 0x00u, 
 729   1                      0x00u, 0x00u, 0x00u, 0x00u, 0x00u, 0x00u, 0x00u, 0x00u, 0x00u, 0x00u, 0x00u, 0x00u, 0x00u, 0x00u, 0x00u,
             - 0x02u, 
 730   1                      0x00u, 0x00u, 0x00u, 0x00u, 0x00u, 0x00u, 0x00u, 0x00u, 0x00u, 0x00u, 0x00u, 0x00u, 0x00u, 0x00u, 0x00u,
             - 0x00u, 
 731   1                      0x00u, 0x00u, 0x00u, 0x00u, 0x00u, 0x00u, 0x00u, 0x00u, 0x00u, 0x00u, 0x00u, 0x00u, 0x00u, 0x00u, 0x00u,
             - 0x00u};
 732   1      
 733   1              /* DSI3_4_HV_ROUTING Address: CYDEV_UCFG_DSI1_BASE + 0x00000080u Size (bytes): 128 */
 734   1              DMAINITSEC static const uint8 CYCODE BS_DSI3_4_HV_ROUTING_VAL[] = {
 735   1                      0x00u, 0x00u, 0x00u, 0x00u, 0x00u, 0x00u, 0x00u, 0x00u, 0x00u, 0x00u, 0x00u, 0x00u, 0x00u, 0x00u, 0x00u,
             - 0x00u, 
 736   1                      0x00u, 0x00u, 0x00u, 0x00u, 0x00u, 0x00u, 0x00u, 0x00u, 0x00u, 0x20u, 0x00u, 0x80u, 0x00u, 0x00u, 0x00u,
             - 0x00u, 
 737   1                      0x00u, 0x00u, 0x00u, 0x00u, 0x00u, 0x00u, 0xA1u, 0x00u, 0x40u, 0x00u, 0x00u, 0x80u, 0x00u, 0x00u, 0x00u,
             - 0x00u, 
 738   1                      0x00u, 0x00u, 0x00u, 0x00u, 0x00u, 0x00u, 0x00u, 0x00u, 0x00u, 0x00u, 0x00u, 0x00u, 0x00u, 0x00u, 0x00u,
             - 0x00u, 
 739   1                      0x00u, 0x00u, 0x00u, 0x00u, 0x00u, 0x00u, 0x00u, 0x00u, 0x00u, 0x00u, 0x00u, 0x00u, 0x30u, 0x00u, 0x00u,
             - 0x00u, 
 740   1                      0x00u, 0x00u, 0x00u, 0x00u, 0x00u, 0x00u, 0x80u, 0x00u, 0x00u, 0x00u, 0x00u, 0x00u, 0x00u, 0x00u, 0x00u,
             - 0x00u, 
 741   1                      0x00u, 0x00u, 0x00u, 0x00u, 0x00u, 0x00u, 0x00u, 0x00u, 0x00u, 0x00u, 0x80u, 0x00u, 0x00u, 0x00u, 0x20u,
             - 0x00u, 
 742   1                      0x00u, 0x00u, 0x00u, 0x00u, 0x00u, 0x00u, 0x00u, 0x00u, 0x00u, 0x00u, 0x00u, 0x00u, 0x00u, 0x00u, 0x00u,
             - 0x00u};
 743   1      
 744   1              /* DSISWITCH_1_5 Address: CYDEV_UCFG_DSI0_BASE Size (bytes): 128 */
 745   1              DMAINITSEC static const uint8 CYCODE BS_DSISWITCH_1_5_VAL[] = {
 746   1                      0x00u, 0x00u, 0x00u, 0x00u, 0x00u, 0x00u, 0x00u, 0x00u, 0x00u, 0x00u, 0x00u, 0x00u, 0x00u, 0x00u, 0x00u,
             - 0x00u, 
C51 COMPILER V9.51   CYFITTER_CFG                                                          06/30/2014 14:50:27 PAGE 20  

 747   1                      0x00u, 0x00u, 0x00u, 0x00u, 0x00u, 0x00u, 0x00u, 0x00u, 0x00u, 0x00u, 0x00u, 0x00u, 0x00u, 0x00u, 0x00u,
             - 0x00u, 
 748   1                      0x00u, 0x00u, 0x00u, 0x00u, 0x00u, 0x00u, 0x00u, 0x00u, 0x00u, 0x00u, 0x00u, 0x00u, 0x00u, 0x00u, 0x00u,
             - 0x00u, 
 749   1                      0x02u, 0x00u, 0x80u, 0x00u, 0x00u, 0x00u, 0x21u, 0x00u, 0x40u, 0x00u, 0x00u, 0x00u, 0x00u, 0x00u, 0x00u,
             - 0x00u, 
 750   1                      0x00u, 0x00u, 0x00u, 0x00u, 0x00u, 0x00u, 0x00u, 0x00u, 0x00u, 0x00u, 0x00u, 0x00u, 0x00u, 0x00u, 0x00u,
             - 0x00u, 
 751   1                      0x00u, 0x00u, 0x00u, 0x00u, 0x00u, 0x00u, 0x00u, 0x00u, 0x00u, 0x00u, 0x00u, 0x00u, 0x00u, 0x00u, 0x00u,
             - 0x00u, 
 752   1                      0x00u, 0x00u, 0x00u, 0x00u, 0x00u, 0x00u, 0x00u, 0x00u, 0x00u, 0x00u, 0x00u, 0x00u, 0x00u, 0x00u, 0x00u,
             - 0x00u, 
 753   1                      0x00u, 0x00u, 0x00u, 0x00u, 0x00u, 0x00u, 0x00u, 0x00u, 0x00u, 0x00u, 0x00u, 0x00u, 0x00u, 0x00u, 0x00u,
             - 0x00u};
 754   1      
 755   1              /* DSI3_5_HV_ROUTING Address: CYDEV_UCFG_DSI0_BASE + 0x00000080u Size (bytes): 128 */
 756   1              DMAINITSEC static const uint8 CYCODE BS_DSI3_5_HV_ROUTING_VAL[] = {
 757   1                      0x00u, 0x20u, 0x00u, 0x00u, 0x02u, 0x00u, 0x00u, 0x00u, 0x00u, 0x00u, 0x00u, 0x00u, 0x00u, 0x00u, 0x00u,
             - 0x00u, 
 758   1                      0x00u, 0x00u, 0x00u, 0x00u, 0x00u, 0x00u, 0x00u, 0x00u, 0x00u, 0x00u, 0x00u, 0x00u, 0x00u, 0x00u, 0x00u,
             - 0x00u, 
 759   1                      0x00u, 0x00u, 0x00u, 0x00u, 0x00u, 0x00u, 0x00u, 0x00u, 0x00u, 0x00u, 0x00u, 0x00u, 0x00u, 0x00u, 0x00u,
             - 0x00u, 
 760   1                      0x00u, 0x00u, 0x00u, 0x00u, 0x00u, 0x00u, 0x00u, 0x00u, 0x00u, 0x00u, 0x00u, 0x00u, 0x00u, 0x00u, 0x00u,
             - 0x00u, 
 761   1                      0x00u, 0x00u, 0x00u, 0x00u, 0x00u, 0x00u, 0x00u, 0x00u, 0x00u, 0x00u, 0x00u, 0x00u, 0xF0u, 0x00u, 0x10u,
             - 0x00u, 
 762   1                      0x00u, 0x00u, 0x00u, 0x00u, 0x00u, 0x00u, 0x00u, 0x00u, 0x00u, 0x00u, 0x00u, 0x00u, 0x00u, 0x00u, 0x00u,
             - 0x00u, 
 763   1                      0x00u, 0x00u, 0x10u, 0x00u, 0x00u, 0x00u, 0x80u, 0x00u, 0x00u, 0x00u, 0x00u, 0x00u, 0x00u, 0x00u, 0x00u,
             - 0x00u, 
 764   1                      0x00u, 0x00u, 0x00u, 0x00u, 0x00u, 0x00u, 0x00u, 0x00u, 0x00u, 0x00u, 0x00u, 0x00u, 0x00u, 0x00u, 0x00u,
             - 0x00u};
 765   1      
 766   1              /* PHUB_CH2_CFGMEM_CFG0/1 initialization data */
 767   1              DMAINITSEC static const uint8 CYCODE CH2_ADDR_DATA0[] = { 0x01u, 0x00u, 0x00u, 0x00u, 0x00u, 0x00u, 0x01u
             -, 0x00u };
 768   1      
 769   1              /* PHUB_CH3_CFGMEM_CFG0/1 initialization data */
 770   1              DMAINITSEC static const uint8 CYCODE CH3_ADDR_DATA0[] = { 0x01u, 0x00u, 0x00u, 0x00u, 0x10u, 0x00u, 0x00u
             -, 0x00u };
 771   1      
 772   1              /* PHUB_CH4_CFGMEM_CFG0/1 initialization data */
 773   1              DMAINITSEC static const uint8 CYCODE CH4_ADDR_DATA0[] = { 0x01u, 0x00u, 0x00u, 0x00u, 0x10u, 0x00u, 0x01u
             -, 0x00u };
 774   1      
 775   1              /* Initialization data for each DMA channel's TD registers */
 776   1              DMAINITSEC static const uint8 CYCODE DMA_TD_START_CMD[] = { 0x01u, 0x00u, 0x00u, 0x00u, 0x01u };
 777   1      
 778   1              CYALIGNED static uint32 CYXDATA DMA_ZERO_VAL;
 779   1      
 780   1              /* This table holds all of the initialization data necessary for the DMA
 781   1                 process to transfer data from the source location to the destination. */
 782   1              DMAINITSEC static const struct td_t CYCODE CFG_TD_LIST0[] = {
 783   1                      /* Size, Flags, Next, Source, Destination */
 784   1                      { 8u, 0x23u, 0x02u, (uint16)(uint32)(CH2_ADDR_DATA0), (uint16)(CYREG_PHUB_CFGMEM2_CFG0) },      /* TD 1 */
 785   1                      { 8u, 0x23u, 0x03u, (uint16)(uint32)(CH3_ADDR_DATA0), (uint16)(CYREG_PHUB_CFGMEM3_CFG0) },      /* TD 2 */
 786   1                      { 8u, 0x23u, 0x04u, (uint16)(uint32)(CH4_ADDR_DATA0), (uint16)(CYREG_PHUB_CFGMEM4_CFG0) },      /* TD 3 */
 787   1                      { 5u, 0x23u, 0x05u, (uint16)(uint32)(DMA_TD_START_CMD), (uint16)(CYREG_PHUB_CH2_BASIC_CFG) },   /* TD 4 */
 788   1                      { 5u, 0x23u, 0x06u, (uint16)(uint32)(DMA_TD_START_CMD), (uint16)(CYREG_PHUB_CH3_BASIC_CFG) },   /* TD 5 */
 789   1                      { 5u, 0x23u, 0xFEu, (uint16)(uint32)(DMA_TD_START_CMD), (uint16)(CYREG_PHUB_CH4_BASIC_CFG) },   /* TD 6 */
 790   1                      { 384u, 0x22u, 0x08u, (uint16)(uint32)(&DMA_ZERO_VAL), (uint16)(CYDEV_UCFG_B0_P0_U0_BASE) },    /* TD 7 */
C51 COMPILER V9.51   CYFITTER_CFG                                                          06/30/2014 14:50:27 PAGE 21  

 791   1                      { 384u, 0x22u, 0x09u, (uint16)(uint32)(&DMA_ZERO_VAL), (uint16)(CYDEV_UCFG_B0_P1_U0_BASE) },    /* TD 8 */
 792   1                      { 384u, 0x22u, 0x0Au, (uint16)(uint32)(&DMA_ZERO_VAL), (uint16)(CYDEV_UCFG_B0_P2_U0_BASE) },    /* TD 9 */
 793   1                      { 384u, 0x22u, 0x0Bu, (uint16)(uint32)(&DMA_ZERO_VAL), (uint16)(CYDEV_UCFG_B1_P2_U0_BASE) },    /* TD 10 */
 794   1                      { 128u, 0x22u, 0x0Cu, (uint16)(uint32)(&DMA_ZERO_VAL), (uint16)(CYDEV_UCFG_DSI2_BASE) },        /* TD 11 */
 795   1                      { 128u, 0x22u, 0x0Du, (uint16)(uint32)(&DMA_ZERO_VAL), (uint16)(CYDEV_UCFG_DSI3_BASE) },        /* TD 12 */
 796   1                      { 128u, 0x22u, 0x0Eu, (uint16)(uint32)(&DMA_ZERO_VAL), (uint16)(CYDEV_UCFG_DSI5_BASE) },        /* TD 13 */
 797   1                      { 128u, 0x22u, 0x0Fu, (uint16)(uint32)(&DMA_ZERO_VAL), (uint16)(CYDEV_UCFG_DSI6_BASE) },        /* TD 14 */
 798   1                      { 128u, 0x22u, 0x10u, (uint16)(uint32)(&DMA_ZERO_VAL), (uint16)(CYDEV_UCFG_DSI7_BASE) },        /* TD 15 */
 799   1                      { 128u, 0x22u, 0xFEu, (uint16)(uint32)(&DMA_ZERO_VAL), (uint16)(CYDEV_UCFG_DSI8_BASE) },        /* TD 16 */
 800   1                      { 7u, 0x23u, 0x12u, (uint16)(uint32)(BS_IOPORT_0_VAL), (uint16)(CYDEV_PRTDSI_PRT0_BASE) },      /* TD 17 */
 801   1                      { 7u, 0x23u, 0x13u, (uint16)(uint32)(BS_IOPORT_1_VAL), (uint16)(CYDEV_PRTDSI_PRT1_BASE) },      /* TD 18 */
 802   1                      { 7u, 0x23u, 0x14u, (uint16)(uint32)(BS_IOPORT_3_VAL), (uint16)(CYDEV_PRTDSI_PRT3_BASE) },      /* TD 19 */
 803   1                      { 7u, 0x23u, 0x15u, (uint16)(uint32)(BS_IOPORT_4_VAL), (uint16)(CYDEV_PRTDSI_PRT4_BASE) },      /* TD 20 */
 804   1                      { 7u, 0x23u, 0x16u, (uint16)(uint32)(BS_IOPORT_5_VAL), (uint16)(CYDEV_PRTDSI_PRT5_BASE) },      /* TD 21 */
 805   1                      { 7u, 0x23u, 0x17u, (uint16)(uint32)(BS_IOPORT_6_VAL), (uint16)(CYDEV_PRTDSI_PRT6_BASE) },      /* TD 22 */
 806   1                      { 6u, 0x23u, 0x18u, (uint16)(uint32)(BS_IOPORT_7_VAL), (uint16)(CYDEV_PRTDSI_PRT12_BASE) },     /* TD 23 */
 807   1                      { 8u, 0x23u, 0x19u, (uint16)(uint32)(BS_PICU_5_VAL), (uint16)(CYDEV_PICU_INTTYPE_PICU5_BASE) }, /* TD 24
             - */
 808   1                      { 32u, 0x23u, 0x1Au, (uint16)(uint32)(BS_UWRK_B0_WRK_STATCTL_BITS_VAL), (uint16)(CYDEV_UWRK_UWRK8_B0_BAS
             -E + 0x00000070u) },   /* TD 25 */
 809   1                      { 32u, 0x23u, 0xFEu, (uint16)(uint32)(BS_UWRK_B1_WRK_STATCTL_BITS_VAL), (uint16)(CYDEV_UWRK_UWRK8_B1_BAS
             -E + 0x00000070u) },   /* TD 26 */
 810   1                      { 8u, 0x23u, 0x1Cu, (uint16)(uint32)(BS_IDMUX_IRQ_VAL), (uint16)(CYREG_IDMUX_IRQ_CTL0) },       /* TD 27 */
 811   1                      { 128u, 0x23u, 0x1Du, (uint16)(uint32)(BS_UDB_1_2_1_CONFIG_VAL), (uint16)(CYDEV_UCFG_B0_P3_U0_BASE) },  /
             -* TD 28 */
 812   1                      { 128u, 0x23u, 0x1Eu, (uint16)(uint32)(BS_UDB_1_2_0_CONFIG_VAL), (uint16)(CYDEV_UCFG_B0_P3_U1_BASE) },  /
             -* TD 29 */
 813   1                      { 128u, 0x23u, 0x1Fu, (uint16)(uint32)(BS_UDB_0_2_1_CONFIG_VAL), (uint16)(CYDEV_UCFG_B0_P4_U0_BASE) },  /
             -* TD 30 */
 814   1                      { 128u, 0x23u, 0x20u, (uint16)(uint32)(BS_UDB_0_2_0_CONFIG_VAL), (uint16)(CYDEV_UCFG_B0_P4_U1_BASE) },  /
             -* TD 31 */
 815   1                      { 128u, 0x23u, 0x21u, (uint16)(uint32)(BS_UDB_0_3_0_CONFIG_VAL), (uint16)(CYDEV_UCFG_B0_P5_U0_BASE) },  /
             -* TD 32 */
 816   1                      { 128u, 0x23u, 0x22u, (uint16)(uint32)(BS_UDB_0_3_1_CONFIG_VAL), (uint16)(CYDEV_UCFG_B0_P5_U1_BASE) },  /
             -* TD 33 */
 817   1                      { 128u, 0x23u, 0x23u, (uint16)(uint32)(BS_UDB_0_4_1_CONFIG_VAL), (uint16)(CYDEV_UCFG_B0_P6_U0_BASE) },  /
             -* TD 34 */
 818   1                      { 128u, 0x23u, 0x24u, (uint16)(uint32)(BS_UDB_0_4_0_CONFIG_VAL), (uint16)(CYDEV_UCFG_B0_P6_U1_BASE) },  /
             -* TD 35 */
 819   1                      { 128u, 0x23u, 0x25u, (uint16)(uint32)(BS_UDB_0_5_0_CONFIG_VAL), (uint16)(CYDEV_UCFG_B0_P7_U0_BASE) },  /
             -* TD 36 */
 820   1                      { 128u, 0x23u, 0x26u, (uint16)(uint32)(BS_UDB_0_5_1_CONFIG_VAL), (uint16)(CYDEV_UCFG_B0_P7_U1_BASE) },  /
             -* TD 37 */
 821   1                      { 128u, 0x23u, 0x27u, (uint16)(uint32)(BS_UDB_1_1_1_CONFIG_VAL), (uint16)(CYDEV_UCFG_B1_P3_U0_BASE) },  /
             -* TD 38 */
 822   1                      { 128u, 0x23u, 0x28u, (uint16)(uint32)(BS_UDB_1_1_0_CONFIG_VAL), (uint16)(CYDEV_UCFG_B1_P3_U1_BASE) },  /
             -* TD 39 */
 823   1                      { 128u, 0x23u, 0x29u, (uint16)(uint32)(BS_UDB_0_1_1_CONFIG_VAL), (uint16)(CYDEV_UCFG_B1_P4_U0_BASE) },  /
             -* TD 40 */
 824   1                      { 128u, 0x23u, 0x2Au, (uint16)(uint32)(BS_UDB_0_1_0_CONFIG_VAL), (uint16)(CYDEV_UCFG_B1_P4_U1_BASE) },  /
             -* TD 41 */
 825   1                      { 128u, 0x23u, 0x2Bu, (uint16)(uint32)(BS_UDB_0_0_0_CONFIG_VAL), (uint16)(CYDEV_UCFG_B1_P5_U0_BASE) },  /
             -* TD 42 */
 826   1                      { 128u, 0x23u, 0x2Cu, (uint16)(uint32)(BS_UDB_0_0_1_CONFIG_VAL), (uint16)(CYDEV_UCFG_B1_P5_U1_BASE) },  /
             -* TD 43 */
 827   1                      { 16u, 0x23u, 0x2Du, (uint16)(uint32)(BS_UCFG_BCTL1_VAL), (uint16)(CYREG_BCTL1_MDCLK_EN) },     /* TD 44 */
 828   1                      { 16u, 0x23u, 0x2Eu, (uint16)(uint32)(BS_UCFG_BCTL0_VAL), (uint16)(CYREG_BCTL0_MDCLK_EN) },     /* TD 45 */
 829   1                      { 128u, 0x23u, 0x2Fu, (uint16)(uint32)(BS_DSISWITCH_0_0_VAL), (uint16)(CYDEV_UCFG_DSI13_BASE) },        /* TD 4
             -6 */
 830   1                      { 128u, 0x23u, 0x30u, (uint16)(uint32)(BS_DSI0_0_HV_ROUTING_VAL), (uint16)(CYDEV_UCFG_DSI13_BASE + 0x000
             -00080u) },        /* TD 47 */
 831   1                      { 128u, 0x23u, 0x31u, (uint16)(uint32)(BS_DSISWITCH_0_1_VAL), (uint16)(CYDEV_UCFG_DSI12_BASE) },        /* TD 4
C51 COMPILER V9.51   CYFITTER_CFG                                                          06/30/2014 14:50:27 PAGE 22  

             -8 */
 832   1                      { 128u, 0x23u, 0x32u, (uint16)(uint32)(BS_DSI0_1_HV_ROUTING_VAL), (uint16)(CYDEV_UCFG_DSI12_BASE + 0x000
             -00080u) },        /* TD 49 */
 833   1                      { 128u, 0x23u, 0x33u, (uint16)(uint32)(BS_DSI0_2_HV_ROUTING_VAL), (uint16)(CYDEV_UCFG_DSI7_BASE + 0x0000
             -0080u) },        /* TD 50 */
 834   1                      { 128u, 0x23u, 0x34u, (uint16)(uint32)(BS_DSI0_3_HV_ROUTING_VAL), (uint16)(CYDEV_UCFG_DSI6_BASE + 0x0000
             -0080u) },        /* TD 51 */
 835   1                      { 128u, 0x23u, 0x35u, (uint16)(uint32)(BS_DSI0_4_HV_ROUTING_VAL), (uint16)(CYDEV_UCFG_DSI5_BASE + 0x0000
             -0080u) },        /* TD 52 */
 836   1                      { 128u, 0x23u, 0x36u, (uint16)(uint32)(BS_DSISWITCH_0_5_VAL), (uint16)(CYDEV_UCFG_DSI4_BASE) }, /* TD 53
             - */
 837   1                      { 128u, 0x23u, 0x37u, (uint16)(uint32)(BS_DSI0_5_HV_ROUTING_VAL), (uint16)(CYDEV_UCFG_DSI4_BASE + 0x0000
             -0080u) },        /* TD 54 */
 838   1                      { 128u, 0x23u, 0x38u, (uint16)(uint32)(BS_UDBSWITCH_0_0_VAL), (uint16)(CYDEV_UCFG_B1_P5_ROUTE_BASE) },  /
             -* TD 55 */
 839   1                      { 128u, 0x23u, 0x39u, (uint16)(uint32)(BS_UDB_1_0_HV_ROUTING_VAL), (uint16)(CYDEV_UCFG_B1_P5_ROUTE_BASE 
             -+ 0x00000080u) },     /* TD 56 */
 840   1                      { 128u, 0x23u, 0x3Au, (uint16)(uint32)(BS_UDB_2_0_HV_ROUTING_VAL), (uint16)(CYDEV_UCFG_B1_P2_ROUTE_BASE 
             -+ 0x00000080u) },     /* TD 57 */
 841   1                      { 128u, 0x23u, 0x3Bu, (uint16)(uint32)(BS_UDBSWITCH_0_1_VAL), (uint16)(CYDEV_UCFG_B1_P4_ROUTE_BASE) },  /
             -* TD 58 */
 842   1                      { 128u, 0x23u, 0x3Cu, (uint16)(uint32)(BS_UDB_1_1_HV_ROUTING_VAL), (uint16)(CYDEV_UCFG_B1_P4_ROUTE_BASE 
             -+ 0x00000080u) },     /* TD 59 */
 843   1                      { 128u, 0x23u, 0x3Du, (uint16)(uint32)(BS_UDBSWITCH_1_1_VAL), (uint16)(CYDEV_UCFG_B1_P3_ROUTE_BASE) },  /
             -* TD 60 */
 844   1                      { 128u, 0x23u, 0x3Eu, (uint16)(uint32)(BS_UDB_2_1_HV_ROUTING_VAL), (uint16)(CYDEV_UCFG_B1_P3_ROUTE_BASE 
             -+ 0x00000080u) },     /* TD 61 */
 845   1                      { 128u, 0x23u, 0x3Fu, (uint16)(uint32)(BS_UDBSWITCH_0_2_VAL), (uint16)(CYDEV_UCFG_B0_P4_ROUTE_BASE) },  /
             -* TD 62 */
 846   1                      { 128u, 0x23u, 0x40u, (uint16)(uint32)(BS_UDB_1_2_HV_ROUTING_VAL), (uint16)(CYDEV_UCFG_B0_P4_ROUTE_BASE 
             -+ 0x00000080u) },     /* TD 63 */
 847   1                      { 128u, 0x23u, 0x41u, (uint16)(uint32)(BS_UDBSWITCH_1_2_VAL), (uint16)(CYDEV_UCFG_B0_P3_ROUTE_BASE) },  /
             -* TD 64 */
 848   1                      { 128u, 0x23u, 0x42u, (uint16)(uint32)(BS_UDB_2_2_HV_ROUTING_VAL), (uint16)(CYDEV_UCFG_B0_P3_ROUTE_BASE 
             -+ 0x00000080u) },     /* TD 65 */
 849   1                      { 128u, 0x23u, 0x43u, (uint16)(uint32)(BS_UDBSWITCH_0_3_VAL), (uint16)(CYDEV_UCFG_B0_P5_ROUTE_BASE) },  /
             -* TD 66 */
 850   1                      { 128u, 0x23u, 0x44u, (uint16)(uint32)(BS_UDB_1_3_HV_ROUTING_VAL), (uint16)(CYDEV_UCFG_B0_P5_ROUTE_BASE 
             -+ 0x00000080u) },     /* TD 67 */
 851   1                      { 128u, 0x23u, 0x45u, (uint16)(uint32)(BS_UDB_2_3_HV_ROUTING_VAL), (uint16)(CYDEV_UCFG_B0_P2_ROUTE_BASE 
             -+ 0x00000080u) },     /* TD 68 */
 852   1                      { 128u, 0x23u, 0x46u, (uint16)(uint32)(BS_UDBSWITCH_0_4_VAL), (uint16)(CYDEV_UCFG_B0_P6_ROUTE_BASE) },  /
             -* TD 69 */
 853   1                      { 128u, 0x23u, 0x47u, (uint16)(uint32)(BS_UDB_1_4_HV_ROUTING_VAL), (uint16)(CYDEV_UCFG_B0_P6_ROUTE_BASE 
             -+ 0x00000080u) },     /* TD 70 */
 854   1                      { 128u, 0x23u, 0x48u, (uint16)(uint32)(BS_UDB_2_4_HV_ROUTING_VAL), (uint16)(CYDEV_UCFG_B0_P1_ROUTE_BASE 
             -+ 0x00000080u) },     /* TD 71 */
 855   1                      { 128u, 0x23u, 0x49u, (uint16)(uint32)(BS_UDBSWITCH_0_5_VAL), (uint16)(CYDEV_UCFG_B0_P7_ROUTE_BASE) },  /
             -* TD 72 */
 856   1                      { 128u, 0x23u, 0x4Au, (uint16)(uint32)(BS_UDB_1_5_HV_ROUTING_VAL), (uint16)(CYDEV_UCFG_B0_P7_ROUTE_BASE 
             -+ 0x00000080u) },     /* TD 73 */
 857   1                      { 128u, 0x23u, 0x4Bu, (uint16)(uint32)(BS_UDB_2_5_HV_ROUTING_VAL), (uint16)(CYDEV_UCFG_B0_P0_ROUTE_BASE 
             -+ 0x00000080u) },     /* TD 74 */
 858   1                      { 128u, 0x23u, 0x4Cu, (uint16)(uint32)(BS_DSISWITCH_1_0_VAL), (uint16)(CYDEV_UCFG_DSI9_BASE) }, /* TD 75
             - */
 859   1                      { 128u, 0x23u, 0x4Du, (uint16)(uint32)(BS_DSI3_0_HV_ROUTING_VAL), (uint16)(CYDEV_UCFG_DSI9_BASE + 0x0000
             -0080u) },        /* TD 76 */
 860   1                      { 128u, 0x23u, 0x4Eu, (uint16)(uint32)(BS_DSI3_1_HV_ROUTING_VAL), (uint16)(CYDEV_UCFG_DSI8_BASE + 0x0000
             -0080u) },        /* TD 77 */
 861   1                      { 128u, 0x23u, 0x4Fu, (uint16)(uint32)(BS_DSI3_2_HV_ROUTING_VAL), (uint16)(CYDEV_UCFG_DSI3_BASE + 0x0000
             -0080u) },        /* TD 78 */
 862   1                      { 128u, 0x23u, 0x50u, (uint16)(uint32)(BS_DSI3_3_HV_ROUTING_VAL), (uint16)(CYDEV_UCFG_DSI2_BASE + 0x0000
C51 COMPILER V9.51   CYFITTER_CFG                                                          06/30/2014 14:50:27 PAGE 23  

             -0080u) },        /* TD 79 */
 863   1                      { 128u, 0x23u, 0x51u, (uint16)(uint32)(BS_DSISWITCH_1_4_VAL), (uint16)(CYDEV_UCFG_DSI1_BASE) }, /* TD 80
             - */
 864   1                      { 128u, 0x23u, 0x52u, (uint16)(uint32)(BS_DSI3_4_HV_ROUTING_VAL), (uint16)(CYDEV_UCFG_DSI1_BASE + 0x0000
             -0080u) },        /* TD 81 */
 865   1                      { 128u, 0x23u, 0x53u, (uint16)(uint32)(BS_DSISWITCH_1_5_VAL), (uint16)(CYDEV_UCFG_DSI0_BASE) }, /* TD 82
             - */
 866   1                      { 128u, 0x23u, 0xFEu, (uint16)(uint32)(BS_DSI3_5_HV_ROUTING_VAL), (uint16)(CYDEV_UCFG_DSI0_BASE + 0x0000
             -0080u) },        /* TD 83 */
 867   1              };
 868   1      
 869   1              DMA_ZERO_VAL = 0u;
 870   1              CY_SET_REG8((void CYXDATA *)CYREG_PHUB_CFGMEM0_CFG0, 0x10u);    /* set burstcnt */
 871   1              CY_SET_REG8((void CYXDATA *)CYREG_PHUB_CH0_BASIC_CFG, 0x01u);   /* enable ch0 */
 872   1              CY_SET_REG8((void CYXDATA *)(CYREG_PHUB_CH0_BASIC_STATUS+1u), 0x00u);   /* set first TD to 0 */
 873   1              CY_SET_REG16((void CYXDATA *)CYREG_PHUB_TDMEM0_ORIG_TD0, 83u*8u);       /* transfer size */
 874   1              CY_SET_REG8((void CYXDATA *)(CYREG_PHUB_TDMEM0_ORIG_TD0+2u), 0x01u);    /* set next TD to 1 */
 875   1              CY_SET_REG8((void CYXDATA *)(CYREG_PHUB_TDMEM0_ORIG_TD0+3u), 0xA3u);    /* set TD flags */
 876   1              CY_SET_REG16((void CYXDATA *)CYREG_PHUB_TDMEM0_ORIG_TD1, (uint16)((uint32)CFG_TD_LIST0 & 0x0000FFFFu)); /
             -* set td0's src addr */
 877   1              CY_SET_REG16((void CYXDATA *)(CYREG_PHUB_TDMEM0_ORIG_TD1+2u), CYDEV_PHUB_TDMEM1_BASE);  /* set td0's dst a
             -ddr */
 878   1              CY_SET_REG16((void CYXDATA *)CYREG_PHUB_CFGMEM0_CFG1, (uint16)(CYDEV_FLS_BASE >> 16));  /* set ch0's src h
             -igh addr */
 879   1              CY_SET_REG16((void CYXDATA *)(CYREG_PHUB_CFGMEM0_CFG1+2u), (uint16)(CYDEV_PHUB_TDMEM1_BASE >> 16));     /* se
             -t ch0's dst high addr */
 880   1              CY_SET_REG8((void CYXDATA *)(CYREG_PHUB_CH2_BASIC_STATUS+1u), 0x07u);   /* ch2 first TD: 7 */
 881   1              CY_SET_REG8((void CYXDATA *)(CYREG_PHUB_CH3_BASIC_STATUS+1u), 0x11u);   /* ch3 first TD: 17 */
 882   1              CY_SET_REG8((void CYXDATA *)(CYREG_PHUB_CH4_BASIC_STATUS+1u), 0x1Bu);   /* ch4 first TD: 27 */
 883   1      
 884   1              CY_CFG_MEMORY_BARRIER();
 885   1              CY_SET_REG8((void CYXDATA *)CYREG_PHUB_CH0_ACTION, 0x01u); /* cpu_req */
 886   1              CY_CFG_MEMORY_BARRIER();
 887   1      
 888   1              /* Wait for all DMA transfers to complete */
 889   1              while(0u != (CY_GET_REG8((void CYXDATA *)CYREG_PHUB_CH0_BASIC_STATUS) & 0x01u)){}
 890   1              while(0u != (CY_GET_REG8((void CYXDATA *)CYREG_PHUB_CH2_BASIC_STATUS) & 0x01u)){}
 891   1              while(0u != (CY_GET_REG8((void CYXDATA *)CYREG_PHUB_CH3_BASIC_STATUS) & 0x01u)){}
 892   1              while(0u != (CY_GET_REG8((void CYXDATA *)CYREG_PHUB_CH4_BASIC_STATUS) & 0x01u)){}
 893   1      
 894   1      
 895   1      }
 896          /*******************************************************************************
 897          * Function Name: ClockSetup
 898          ********************************************************************************
 899          *
 900          * Summary:
 901          *  Performs the initialization of all of the clocks in the device based on the
 902          *  settings in the Clock tab of the DWR.  This includes enabling the requested
 903          *  clocks and setting the necessary dividers to produce the desired frequency. 
 904          *
 905          * Parameters:
 906          *  void
 907          *
 908          * Return:
 909          *  void
 910          *
 911          *******************************************************************************/
 912          static void ClockSetup(void);
 913          static void ClockSetup(void)
 914          {
 915   1              uint32 timeout;
C51 COMPILER V9.51   CYFITTER_CFG                                                          06/30/2014 14:50:27 PAGE 24  

 916   1              uint8 pllLock;
 917   1      
 918   1      
 919   1              /* Configure Digital Clocks based on settings from Clock DWR */
 920   1              CY_SET_XTND_REG16((void CYFAR *)(CYREG_CLKDIST_DCFG0_CFG0), 0x0000u);
 921   1              CY_SET_REG8((void CYXDATA *)(CYREG_CLKDIST_DCFG0_CFG0 + 0x2u), 0x58u);
 922   1              CY_SET_XTND_REG16((void CYFAR *)(CYREG_CLKDIST_DCFG1_CFG0), 0x000Bu);
 923   1              CY_SET_REG8((void CYXDATA *)(CYREG_CLKDIST_DCFG1_CFG0 + 0x2u), 0x18u);
 924   1              CY_SET_XTND_REG16((void CYFAR *)(CYREG_CLKDIST_DCFG2_CFG0), 0x0064u);
 925   1              CY_SET_REG8((void CYXDATA *)(CYREG_CLKDIST_DCFG2_CFG0 + 0x2u), 0x18u);
 926   1              CY_SET_XTND_REG16((void CYFAR *)(CYREG_CLKDIST_DCFG3_CFG0), 0x012Bu);
 927   1              CY_SET_REG8((void CYXDATA *)(CYREG_CLKDIST_DCFG3_CFG0 + 0x2u), 0x19u);
 928   1              CY_SET_XTND_REG16((void CYFAR *)(CYREG_CLKDIST_DCFG4_CFG0), 0x05DBu);
 929   1              CY_SET_REG8((void CYXDATA *)(CYREG_CLKDIST_DCFG4_CFG0 + 0x2u), 0x19u);
 930   1              CY_SET_XTND_REG16((void CYFAR *)(CYREG_CLKDIST_DCFG5_CFG0), 0x2EDFu);
 931   1              CY_SET_REG8((void CYXDATA *)(CYREG_CLKDIST_DCFG5_CFG0 + 0x2u), 0x19u);
 932   1      
 933   1              /* Configure ILO based on settings from Clock DWR */
 934   1              CY_SET_REG8((void CYXDATA *)(CYREG_SLOWCLK_ILO_CR0), 0x02u);
 935   1              CY_SET_REG8((void CYXDATA *)(CYREG_CLKDIST_CR), 0x08u);
 936   1      
 937   1              /* Configure IMO based on settings from Clock DWR */
 938   1              CY_SET_REG8((void CYXDATA *)(CYREG_FASTCLK_IMO_CR), 0x03u);
 939   1              CY_SET_REG8((void CYXDATA *)(CYREG_IMO_TR1), (CY_GET_XTND_REG8((void CYFAR *)CYREG_FLSHID_CUST_TABLES_IMO
             -_3MHZ)));
 940   1      
 941   1              /* Configure PLL based on settings from Clock DWR */
 942   1              CY_SET_XTND_REG16((void CYFAR *)(CYREG_FASTCLK_PLL_P), 0x0008u);
 943   1              CY_SET_XTND_REG16((void CYFAR *)(CYREG_FASTCLK_PLL_CFG0), 0x1251u);
 944   1              /* Wait up to 250us for the PLL to lock */
 945   1              pllLock = 0u;
 946   1              for (timeout = 250u / 10u; (timeout > 0u) && (pllLock != 0x03u); timeout--)
 947   1              { 
 948   2                      pllLock = 0x03u & ((uint8)((uint8)pllLock << 1) | ((CY_GET_REG8((void CYXDATA *)CYREG_FASTCLK_PLL_SR) & 
             -0x01u) >> 0));
 949   2                      CyDelayCycles(10u * 48u); /* Delay 10us based on 48MHz clock */
 950   2              }
 951   1              /* If we ran out of time the PLL didn't lock so go to the error function */
 952   1              if (timeout == 0u)
 953   1              {
 954   2                      CyClockStartupError(CYCLOCKSTART_PLL_ERROR);
 955   2              }
 956   1      
 957   1              /* Configure Bus/Master Clock based on settings from Clock DWR */
 958   1              CY_SET_XTND_REG16((void CYFAR *)(CYREG_CLKDIST_MSTR0), 0x0100u);
 959   1              CY_SET_REG8((void CYXDATA *)(CYREG_CLKDIST_MSTR0), 0x07u);
 960   1              CY_SET_REG8((void CYXDATA *)(CYREG_CLKDIST_BCFG0), 0x00u);
 961   1              CY_SET_REG8((void CYXDATA *)(CYREG_CLKDIST_BCFG2), 0x48u);
 962   1              CY_SET_REG8((void CYXDATA *)(CYREG_CLKDIST_MSTR0), 0x00u);
 963   1              CY_SET_REG8((void CYXDATA *)(CYREG_CLKDIST_LD), 0x02u);
 964   1      
 965   1              CY_SET_REG8((void CYXDATA *)(CYREG_PM_ACT_CFG2), ((CY_GET_REG8((void CYXDATA *)CYREG_PM_ACT_CFG2) | 0x3Fu
             -)));
 966   1      }
 967          
 968          
 969          /* Analog API Functions */
 970          
 971          
 972          /*******************************************************************************
 973          * Function Name: AnalogSetDefault
 974          ********************************************************************************
C51 COMPILER V9.51   CYFITTER_CFG                                                          06/30/2014 14:50:27 PAGE 25  

 975          *
 976          * Summary:
 977          *  Sets up the analog portions of the chip to default values based on chip
 978          *  configuration options from the project.
 979          *
 980          * Parameters:
 981          *  void
 982          *
 983          * Return:
 984          *  void
 985          *
 986          *******************************************************************************/
 987          static void AnalogSetDefault(void);
 988          static void AnalogSetDefault(void)
 989          {
 990   1              uint8 bg_xover_inl_trim = CY_GET_XTND_REG8((void CYFAR *)(CYREG_FLSHID_MFG_CFG_BG_XOVER_INL_TRIM + 1u));
 991   1              CY_SET_REG8((void CYXDATA *)(CYREG_BG_DFT0), (bg_xover_inl_trim & 0x07u));
 992   1              CY_SET_REG8((void CYXDATA *)(CYREG_BG_DFT1), ((bg_xover_inl_trim >> 4) & 0x0Fu));
 993   1              CY_SET_REG8((void CYXDATA *)CYREG_PUMP_CR0, 0x44u);
 994   1      }
 995          
 996          
 997          /*******************************************************************************
 998          * Function Name: SetAnalogRoutingPumps
 999          ********************************************************************************
1000          *
1001          * Summary:
1002          * Enables or disables the analog pumps feeding analog routing switches.
1003          * Intended to be called at startup, based on the Vdda system configuration;
1004          * may be called during operation when the user informs us that the Vdda voltage
1005          * crossed the pump threshold.
1006          *
1007          * Parameters:
1008          *  enabled - 1 to enable the pumps, 0 to disable the pumps
1009          *
1010          * Return:
1011          *  void
1012          *
1013          *******************************************************************************/
1014          void SetAnalogRoutingPumps(uint8 enabled)
1015          {
1016   1              uint8 regValue = CY_GET_REG8((void CYXDATA *)CYREG_PUMP_CR0);
1017   1              if (enabled != 0u)
1018   1              {
1019   2                      regValue |= 0x00u;
1020   2              }
1021   1              else
1022   1              {
1023   2                      regValue &= (uint8)~0x00u;
1024   2              }
1025   1              CY_SET_REG8((void CYXDATA *)CYREG_PUMP_CR0, regValue);
1026   1      }
1027          
1028          #define CY_AMUX_UNUSED CYREG_BOOST_SR
1029          
1030          
1031          /*******************************************************************************
1032          * Function Name: cyfitter_cfg
1033          ********************************************************************************
1034          * Summary:
1035          *  This function is called by the start-up code for the selected device. It
1036          *  performs all of the necessary device configuration based on the design
C51 COMPILER V9.51   CYFITTER_CFG                                                          06/30/2014 14:50:27 PAGE 26  

1037          *  settings.  This includes settings from the Design Wide Resources (DWR) such
1038          *  as Clocks and Pins as well as any component configuration that is necessary.
1039          *
1040          * Parameters:  
1041          *   void
1042          *
1043          * Return:
1044          *   void
1045          *
1046          *******************************************************************************/
1047          
1048          void cyfitter_cfg(void)
1049          {
1050   1              /* IOPINS0_0 Address: CYREG_PRT0_DR Size (bytes): 10 */
1051   1              DMAINITSEC static const uint8 CYCODE BS_IOPINS0_0_VAL[] = {
1052   1                      0x08u, 0x00u, 0x07u, 0x28u, 0x20u, 0x00u, 0x20u, 0x00u, 0x00u, 0x00u};
1053   1      
1054   1              /* IOPINS0_7 Address: CYREG_PRT12_DM0 Size (bytes): 8 */
1055   1              DMAINITSEC static const uint8 CYCODE BS_IOPINS0_7_VAL[] = {
1056   1                      0xCCu, 0x30u, 0x30u, 0x00u, 0x00u, 0x00u, 0x00u, 0x00u};
1057   1      
1058   1              /* IOPINS0_8 Address: CYREG_PRT15_DM0 Size (bytes): 8 */
1059   1              DMAINITSEC static const uint8 CYCODE BS_IOPINS0_8_VAL[] = {
1060   1                      0x00u, 0x20u, 0x20u, 0x00u, 0x00u, 0x00u, 0x00u, 0x00u};
1061   1      
1062   1              /* IOPINS0_1 Address: CYREG_PRT1_DM0 Size (bytes): 8 */
1063   1              DMAINITSEC static const uint8 CYCODE BS_IOPINS0_1_VAL[] = {
1064   1                      0x04u, 0x80u, 0x80u, 0x00u, 0x80u, 0x00u, 0x00u, 0x00u};
1065   1      
1066   1              /* IOPINS0_2 Address: CYREG_PRT2_DM0 Size (bytes): 8 */
1067   1              DMAINITSEC static const uint8 CYCODE BS_IOPINS0_2_VAL[] = {
1068   1                      0x00u, 0xFEu, 0xFEu, 0x00u, 0x00u, 0x00u, 0x00u, 0x00u};
1069   1      
1070   1              /* IOPINS0_3 Address: CYREG_PRT3_DR Size (bytes): 10 */
1071   1              DMAINITSEC static const uint8 CYCODE BS_IOPINS0_3_VAL[] = {
1072   1                      0xC0u, 0x00u, 0x00u, 0xFCu, 0x3Cu, 0x00u, 0x08u, 0x00u, 0x00u, 0x00u};
1073   1      
1074   1              /* IOPINS0_4 Address: CYREG_PRT4_DR Size (bytes): 10 */
1075   1              DMAINITSEC static const uint8 CYCODE BS_IOPINS0_4_VAL[] = {
1076   1                      0x02u, 0x00u, 0x01u, 0x02u, 0x00u, 0x00u, 0x00u, 0x00u, 0x00u, 0x00u};
1077   1      
1078   1              /* IOPINS0_5 Address: CYREG_PRT5_DR Size (bytes): 10 */
1079   1              DMAINITSEC static const uint8 CYCODE BS_IOPINS0_5_VAL[] = {
1080   1                      0x10u, 0x00u, 0x86u, 0x71u, 0x71u, 0x00u, 0x61u, 0x00u, 0x00u, 0x00u};
1081   1      
1082   1              /* IOPINS0_6 Address: CYREG_PRT6_DM0 Size (bytes): 8 */
1083   1              DMAINITSEC static const uint8 CYCODE BS_IOPINS0_6_VAL[] = {
1084   1                      0xE0u, 0x18u, 0x18u, 0x00u, 0x00u, 0x00u, 0x00u, 0x00u};
1085   1      
1086   1              /* Enable/Disable Debug functionality based on settings from System DWR */
1087   1              CY_SET_XTND_REG8((void CYFAR *)CYREG_MLOGIC_DEBUG, (CY_GET_XTND_REG8((void CYFAR *)CYREG_MLOGIC_DEBUG) | 
             -0x01u));
1088   1      
1089   1              {
1090   2                      cfg_dma_init();
1091   2      
1092   2                      /* Enable digital routing */
1093   2                      CY_SET_XTND_REG8((void CYFAR *)CYREG_BCTL0_BANK_CTL, CY_GET_XTND_REG8((void CYFAR *)CYREG_BCTL0_BANK_CTL
             -) | 0x02u);
1094   2                      CY_SET_XTND_REG8((void CYFAR *)CYREG_BCTL1_BANK_CTL, CY_GET_XTND_REG8((void CYFAR *)CYREG_BCTL1_BANK_CTL
             -) | 0x02u);
1095   2      
C51 COMPILER V9.51   CYFITTER_CFG                                                          06/30/2014 14:50:27 PAGE 27  

1096   2                      /* Enable UDB array */
1097   2                      CY_SET_REG8((void CYXDATA *)CYREG_PM_ACT_CFG0, CY_GET_REG8((void CYXDATA *)CYREG_PM_ACT_CFG0) | 0x40u);
1098   2                      CY_SET_REG8((void CYXDATA *)CYREG_PM_AVAIL_CR2, CY_GET_REG8((void CYXDATA *)CYREG_PM_AVAIL_CR2) | 0x10u)
             -;
1099   2              }
1100   1      
1101   1              /* Perform second pass device configuration. These items must be configured in specific order after the r
             -egular configuration is done. */
1102   1              CYCONFIGCPYCODE((void CYFAR *)(CYREG_PRT0_DR), (const void CYCODE *)(BS_IOPINS0_0_VAL), 10u);
1103   1              CYCONFIGCPYCODE((void CYFAR *)(CYREG_PRT12_DM0), (const void CYCODE *)(BS_IOPINS0_7_VAL), 8u);
1104   1              CYCONFIGCPYCODE((void CYFAR *)(CYREG_PRT15_DM0), (const void CYCODE *)(BS_IOPINS0_8_VAL), 8u);
1105   1              CYCONFIGCPYCODE((void CYFAR *)(CYREG_PRT1_DM0), (const void CYCODE *)(BS_IOPINS0_1_VAL), 8u);
1106   1              CYCONFIGCPYCODE((void CYFAR *)(CYREG_PRT2_DM0), (const void CYCODE *)(BS_IOPINS0_2_VAL), 8u);
1107   1              CYCONFIGCPYCODE((void CYFAR *)(CYREG_PRT3_DR), (const void CYCODE *)(BS_IOPINS0_3_VAL), 10u);
1108   1              CYCONFIGCPYCODE((void CYFAR *)(CYREG_PRT4_DR), (const void CYCODE *)(BS_IOPINS0_4_VAL), 10u);
1109   1              CYCONFIGCPYCODE((void CYFAR *)(CYREG_PRT5_DR), (const void CYCODE *)(BS_IOPINS0_5_VAL), 10u);
1110   1              CYCONFIGCPYCODE((void CYFAR *)(CYREG_PRT6_DM0), (const void CYCODE *)(BS_IOPINS0_6_VAL), 8u);
1111   1              CY_SET_XTND_REG8((void CYFAR *)(CYREG_B0_P6_U1_CFG27), 0x44u);
1112   1              CY_SET_XTND_REG8((void CYFAR *)(CYREG_B1_P5_U1_CFG27), 0xA4u);
1113   1              CY_SET_REG8((void CYXDATA *)(CYREG_INTC_CSR_EN), 0x01u);
1114   1      
1115   1              /* Switch Boost to the precision bandgap reference from its internal reference */
1116   1              CY_SET_REG8((void CYXDATA *)CYREG_BOOST_CR2, (CY_GET_REG8((void CYXDATA *)CYREG_BOOST_CR2) | 0x08u));
1117   1              if (CYDEV_CHIP_REV_ACTUAL < 5u)
1118   1              {
1119   2                      CY_SET_REG8((void CYXDATA *)CYREG_PWRSYS_WAKE_TR2, 0x3Au);
1120   2              }
1121   1      
1122   1      
1123   1              /* Set Flash Cycles based on max possible frequency in case a glitch occurs during ClockSetup(). */
1124   1              CY_SET_REG8((void CYXDATA *)(CYREG_CACHE_CR), (((CYDEV_INSTRUCT_CACHE_ENABLED) != 0) ? 0xF1u : 0xC0u));
1125   1              /* Setup clocks based on selections from Clock DWR */
1126   1              ClockSetup();
1127   1              /* Set Flash Cycles based on newly configured 24.00MHz Bus Clock. */
1128   1              CY_SET_REG8((void CYXDATA *)(CYREG_CACHE_CR), (((CYDEV_INSTRUCT_CACHE_ENABLED) != 0) ? 0xB1u : 0x80u));
1129   1      
1130   1              /* Perform basic analog initialization to defaults */
1131   1              AnalogSetDefault();
1132   1      
1133   1              /* Configure alternate active mode */
1134   1              CYCONFIGCPY((void CYFAR *)CYDEV_PM_STBY_BASE, (const void CYFAR *)CYDEV_PM_ACT_BASE, 14u);
1135   1              CY_SET_REG8((void CYXDATA *)CYREG_PM_STBY_CFG0, CY_GET_REG8((void CYXDATA *)CYREG_PM_STBY_CFG0) & (uint8)
             -~0x02u);        /* Disable CPU */
1136   1      }
C51 COMPILER V9.51   CYFITTER_CFG                                                          06/30/2014 14:50:27 PAGE 28  

ASSEMBLY LISTING OF GENERATED OBJECT CODE


             ; FUNCTION _CyClockStartupError (BEGIN)
                                           ; SOURCE LINE # 71
0000 900000      R     MOV     DPTR,#errorCode
0003 EF                MOV     A,R7
0004 F0                MOVX    @DPTR,A
                                           ; SOURCE LINE # 72
                                           ; SOURCE LINE # 74
0005 900000      R     MOV     DPTR,#errorCode
0008 E0                MOVX    A,@DPTR
0009 FF                MOV     R7,A
000A 900000      R     MOV     DPTR,#errorCode
000D EF                MOV     A,R7
000E F0                MOVX    @DPTR,A
000F         ?C0001:
                                           ; SOURCE LINE # 86
000F 80FE              SJMP    ?C0001
0011 22                RET     
             ; FUNCTION _CyClockStartupError (END)

             ; FUNCTION cfg_dma_init (BEGIN)
                                           ; SOURCE LINE # 107
                                           ; SOURCE LINE # 108
                                           ; SOURCE LINE # 869
0000 7F00              MOV     R7,#00H
0002 7E00              MOV     R6,#00H
0004 7D00              MOV     R5,#00H
0006 7C00              MOV     R4,#00H
0008 900000      R     MOV     DPTR,#DMA_ZERO_VAL
000B 120000      E     LCALL   ?C?LSTXDATA
                                           ; SOURCE LINE # 870
000E 907600            MOV     DPTR,#07600H
0011 7410              MOV     A,#010H
0013 F0                MOVX    @DPTR,A
                                           ; SOURCE LINE # 871
0014 907010            MOV     DPTR,#07010H
0017 7401              MOV     A,#01H
0019 F0                MOVX    @DPTR,A
                                           ; SOURCE LINE # 872
001A 907019            MOV     DPTR,#07019H
001D E4                CLR     A
001E F0                MOVX    @DPTR,A
                                           ; SOURCE LINE # 873
001F 7B02              MOV     R3,#02H
0021 7A78              MOV     R2,#078H
0023 7900              MOV     R1,#00H
0025 7D98              MOV     R5,#098H
0027 7C02              MOV     R4,#02H
0029 120000      E     LCALL   _cywrite16_nodpx
                                           ; SOURCE LINE # 874
002C 907802            MOV     DPTR,#07802H
002F 7401              MOV     A,#01H
0031 F0                MOVX    @DPTR,A
                                           ; SOURCE LINE # 875
0032 907803            MOV     DPTR,#07803H
0035 74A3              MOV     A,#0A3H
0037 F0                MOVX    @DPTR,A
                                           ; SOURCE LINE # 876
0038 7B02              MOV     R3,#02H
003A 7A78              MOV     R2,#078H
C51 COMPILER V9.51   CYFITTER_CFG                                                          06/30/2014 14:50:27 PAGE 29  

003C 7904              MOV     R1,#04H
003E C003              PUSH    AR3
0040 C002              PUSH    AR2
0042 C001              PUSH    AR1
0044 7BFF              MOV     R3,#0FFH
0046 7A00        R     MOV     R2,#HIGH CFG_TD_LIST0
0048 7900        R     MOV     R1,#LOW CFG_TD_LIST0
004A AF01              MOV     R7,AR1
004C AE02              MOV     R6,AR2
004E AD03              MOV     R5,AR3
0050 7C00              MOV     R4,#00H
0052 EF                MOV     A,R7
0053 54FF              ANL     A,#0FFH
0055 FF                MOV     R7,A
0056 EE                MOV     A,R6
0057 54FF              ANL     A,#0FFH
0059 FE                MOV     R6,A
005A ED                MOV     A,R5
005B 5400              ANL     A,#00H
005D FD                MOV     R5,A
005E EC                MOV     A,R4
005F 5400              ANL     A,#00H
0061 FC                MOV     R4,A
0062 AD07              MOV     R5,AR7
0064 AC06              MOV     R4,AR6
0066 D001              POP     AR1
0068 D002              POP     AR2
006A D003              POP     AR3
006C 120000      E     LCALL   _cywrite16_nodpx
                                           ; SOURCE LINE # 877
006F 7B02              MOV     R3,#02H
0071 7A78              MOV     R2,#078H
0073 7906              MOV     R1,#06H
0075 7D08              MOV     R5,#08H
0077 7C78              MOV     R4,#078H
0079 120000      E     LCALL   _cywrite16_nodpx
                                           ; SOURCE LINE # 878
007C 7B02              MOV     R3,#02H
007E 7A76              MOV     R2,#076H
0080 7904              MOV     R1,#04H
0082 7D10              MOV     R5,#010H
0084 7C00              MOV     R4,#00H
0086 120000      E     LCALL   _cywrite16_nodpx
                                           ; SOURCE LINE # 879
0089 7B02              MOV     R3,#02H
008B 7A76              MOV     R2,#076H
008D 7906              MOV     R1,#06H
008F 7D00              MOV     R5,#00H
0091 7C00              MOV     R4,#00H
0093 120000      E     LCALL   _cywrite16_nodpx
                                           ; SOURCE LINE # 880
0096 907039            MOV     DPTR,#07039H
0099 7407              MOV     A,#07H
009B F0                MOVX    @DPTR,A
                                           ; SOURCE LINE # 881
009C 907049            MOV     DPTR,#07049H
009F 7411              MOV     A,#011H
00A1 F0                MOVX    @DPTR,A
                                           ; SOURCE LINE # 882
00A2 907059            MOV     DPTR,#07059H
00A5 741B              MOV     A,#01BH
00A7 F0                MOVX    @DPTR,A
C51 COMPILER V9.51   CYFITTER_CFG                                                          06/30/2014 14:50:27 PAGE 30  

                                           ; SOURCE LINE # 884
                                           ; SOURCE LINE # 885
00A8 907014            MOV     DPTR,#07014H
00AB 7401              MOV     A,#01H
00AD F0                MOVX    @DPTR,A
                                           ; SOURCE LINE # 886
00AE         ?C0010:
                                           ; SOURCE LINE # 889
00AE 907018            MOV     DPTR,#07018H
00B1 E0                MOVX    A,@DPTR
00B2 FF                MOV     R7,A
00B3 EF                MOV     A,R7
00B4 5401              ANL     A,#01H
00B6 FF                MOV     R7,A
00B7 7E00              MOV     R6,#00H
00B9 EF                MOV     A,R7
00BA 4E                ORL     A,R6
00BB 70F1              JNZ     ?C0010
00BD         ?C0011:
00BD         ?C0012:
                                           ; SOURCE LINE # 890
00BD 907038            MOV     DPTR,#07038H
00C0 E0                MOVX    A,@DPTR
00C1 FF                MOV     R7,A
00C2 EF                MOV     A,R7
00C3 5401              ANL     A,#01H
00C5 FF                MOV     R7,A
00C6 7E00              MOV     R6,#00H
00C8 EF                MOV     A,R7
00C9 4E                ORL     A,R6
00CA 70F1              JNZ     ?C0012
00CC         ?C0013:
00CC         ?C0014:
                                           ; SOURCE LINE # 891
00CC 907048            MOV     DPTR,#07048H
00CF E0                MOVX    A,@DPTR
00D0 FF                MOV     R7,A
00D1 EF                MOV     A,R7
00D2 5401              ANL     A,#01H
00D4 FF                MOV     R7,A
00D5 7E00              MOV     R6,#00H
00D7 EF                MOV     A,R7
00D8 4E                ORL     A,R6
00D9 70F1              JNZ     ?C0014
00DB         ?C0015:
00DB         ?C0016:
                                           ; SOURCE LINE # 892
00DB 907058            MOV     DPTR,#07058H
00DE E0                MOVX    A,@DPTR
00DF FF                MOV     R7,A
00E0 EF                MOV     A,R7
00E1 5401              ANL     A,#01H
00E3 FF                MOV     R7,A
00E4 7E00              MOV     R6,#00H
00E6 EF                MOV     A,R7
00E7 4E                ORL     A,R6
00E8 70F1              JNZ     ?C0016
00EA         ?C0017:
                                           ; SOURCE LINE # 895
00EA         ?C0018:
00EA 22                RET     
             ; FUNCTION cfg_dma_init (END)
C51 COMPILER V9.51   CYFITTER_CFG                                                          06/30/2014 14:50:27 PAGE 31  


             ; FUNCTION ClockSetup (BEGIN)
                                           ; SOURCE LINE # 913
                                           ; SOURCE LINE # 914
                                           ; SOURCE LINE # 920
0000 7B00              MOV     R3,#00H
0002 7A40              MOV     R2,#040H
0004 7980              MOV     R1,#080H
0006 7D00              MOV     R5,#00H
0008 7C00              MOV     R4,#00H
000A 120000      E     LCALL   _cywrite16
                                           ; SOURCE LINE # 921
000D 904082            MOV     DPTR,#04082H
0010 7458              MOV     A,#058H
0012 F0                MOVX    @DPTR,A
                                           ; SOURCE LINE # 922
0013 7B00              MOV     R3,#00H
0015 7A40              MOV     R2,#040H
0017 7984              MOV     R1,#084H
0019 7D0B              MOV     R5,#0BH
001B 7C00              MOV     R4,#00H
001D 120000      E     LCALL   _cywrite16
                                           ; SOURCE LINE # 923
0020 904086            MOV     DPTR,#04086H
0023 7418              MOV     A,#018H
0025 F0                MOVX    @DPTR,A
                                           ; SOURCE LINE # 924
0026 7B00              MOV     R3,#00H
0028 7A40              MOV     R2,#040H
002A 7988              MOV     R1,#088H
002C 7D64              MOV     R5,#064H
002E 7C00              MOV     R4,#00H
0030 120000      E     LCALL   _cywrite16
                                           ; SOURCE LINE # 925
0033 90408A            MOV     DPTR,#0408AH
0036 7418              MOV     A,#018H
0038 F0                MOVX    @DPTR,A
                                           ; SOURCE LINE # 926
0039 7B00              MOV     R3,#00H
003B 7A40              MOV     R2,#040H
003D 798C              MOV     R1,#08CH
003F 7D2B              MOV     R5,#02BH
0041 7C01              MOV     R4,#01H
0043 120000      E     LCALL   _cywrite16
                                           ; SOURCE LINE # 927
0046 90408E            MOV     DPTR,#0408EH
0049 7419              MOV     A,#019H
004B F0                MOVX    @DPTR,A
                                           ; SOURCE LINE # 928
004C 7B00              MOV     R3,#00H
004E 7A40              MOV     R2,#040H
0050 7990              MOV     R1,#090H
0052 7DDB              MOV     R5,#0DBH
0054 7C05              MOV     R4,#05H
0056 120000      E     LCALL   _cywrite16
                                           ; SOURCE LINE # 929
0059 904092            MOV     DPTR,#04092H
005C 7419              MOV     A,#019H
005E F0                MOVX    @DPTR,A
                                           ; SOURCE LINE # 930
005F 7B00              MOV     R3,#00H
0061 7A40              MOV     R2,#040H
C51 COMPILER V9.51   CYFITTER_CFG                                                          06/30/2014 14:50:27 PAGE 32  

0063 7994              MOV     R1,#094H
0065 7DDF              MOV     R5,#0DFH
0067 7C2E              MOV     R4,#02EH
0069 120000      E     LCALL   _cywrite16
                                           ; SOURCE LINE # 931
006C 904096            MOV     DPTR,#04096H
006F 7419              MOV     A,#019H
0071 F0                MOVX    @DPTR,A
                                           ; SOURCE LINE # 934
0072 904300            MOV     DPTR,#04300H
0075 7402              MOV     A,#02H
0077 F0                MOVX    @DPTR,A
                                           ; SOURCE LINE # 935
0078 904000            MOV     DPTR,#04000H
007B 7408              MOV     A,#08H
007D F0                MOVX    @DPTR,A
                                           ; SOURCE LINE # 938
007E 904200            MOV     DPTR,#04200H
0081 7403              MOV     A,#03H
0083 F0                MOVX    @DPTR,A
                                           ; SOURCE LINE # 939
0084 7B0C              MOV     R3,#0CH
0086 7A01              MOV     R2,#01H
0088 7908              MOV     R1,#08H
008A 120000      E     LCALL   _cyread8
008D 9046A1            MOV     DPTR,#046A1H
0090 EF                MOV     A,R7
0091 F0                MOVX    @DPTR,A
                                           ; SOURCE LINE # 942
0092 7B00              MOV     R3,#00H
0094 7A42              MOV     R2,#042H
0096 7922              MOV     R1,#022H
0098 7D08              MOV     R5,#08H
009A 7C00              MOV     R4,#00H
009C 120000      E     LCALL   _cywrite16
                                           ; SOURCE LINE # 943
009F 7B00              MOV     R3,#00H
00A1 7A42              MOV     R2,#042H
00A3 7920              MOV     R1,#020H
00A5 7D51              MOV     R5,#051H
00A7 7C12              MOV     R4,#012H
00A9 120000      E     LCALL   _cywrite16
                                           ; SOURCE LINE # 945
00AC 900000      R     MOV     DPTR,#pllLock
00AF E4                CLR     A
00B0 F0                MOVX    @DPTR,A
                                           ; SOURCE LINE # 946
00B1 7F19              MOV     R7,#019H
00B3 7E00              MOV     R6,#00H
00B5 7D00              MOV     R5,#00H
00B7 7C00              MOV     R4,#00H
00B9 900000      R     MOV     DPTR,#timeout
00BC 120000      E     LCALL   ?C?LSTXDATA
00BF         ?C0019:
00BF 900000      R     MOV     DPTR,#timeout
00C2 120000      E     LCALL   ?C?LLDXDATA
00C5 D3                SETB    C
00C6 EF                MOV     A,R7
00C7 9400              SUBB    A,#00H
00C9 EE                MOV     A,R6
00CA 9400              SUBB    A,#00H
00CC 404E              JC      ?C0020
C51 COMPILER V9.51   CYFITTER_CFG                                                          06/30/2014 14:50:27 PAGE 33  

00CE 900000      R     MOV     DPTR,#pllLock
00D1 E0                MOVX    A,@DPTR
00D2 FF                MOV     R7,A
00D3 EF                MOV     A,R7
00D4 6403              XRL     A,#03H
00D6 6044              JZ      ?C0020
                                           ; SOURCE LINE # 947
                                           ; SOURCE LINE # 948
00D8 904225            MOV     DPTR,#04225H
00DB E0                MOVX    A,@DPTR
00DC FF                MOV     R7,A
00DD EF                MOV     A,R7
00DE 5401              ANL     A,#01H
00E0 FF                MOV     R7,A
00E1 7E00              MOV     R6,#00H
00E3 900000      R     MOV     DPTR,#pllLock
00E6 E0                MOVX    A,@DPTR
00E7 FE                MOV     R6,A
00E8 EE                MOV     A,R6
00E9 25E0              ADD     A,ACC
00EB FE                MOV     R6,A
00EC EE                MOV     A,R6
00ED 4F                ORL     A,R7
00EE FF                MOV     R7,A
00EF EF                MOV     A,R7
00F0 5403              ANL     A,#03H
00F2 FF                MOV     R7,A
00F3 900000      R     MOV     DPTR,#pllLock
00F6 EF                MOV     A,R7
00F7 F0                MOVX    @DPTR,A
                                           ; SOURCE LINE # 949
00F8 7FE0              MOV     R7,#0E0H
00FA 7E01              MOV     R6,#01H
00FC 7D00              MOV     R5,#00H
00FE 7C00              MOV     R4,#00H
0100 120000      E     LCALL   _CyDelayCycles
                                           ; SOURCE LINE # 950
0103 900000      R     MOV     DPTR,#timeout
0106 120000      E     LCALL   ?C?LLDXDATA
0109 7BFF              MOV     R3,#0FFH
010B 7AFF              MOV     R2,#0FFH
010D 79FF              MOV     R1,#0FFH
010F 78FF              MOV     R0,#0FFH
0111 120000      E     LCALL   ?C?LADD
0114 900000      R     MOV     DPTR,#timeout
0117 120000      E     LCALL   ?C?LSTXDATA
011A 80A3              SJMP    ?C0019
011C         ?C0020:
                                           ; SOURCE LINE # 952
011C 900000      R     MOV     DPTR,#timeout
011F 120000      E     LCALL   ?C?LLDXDATA
0122 EF                MOV     A,R7
0123 4E                ORL     A,R6
0124 7005              JNZ     ?C0022
                                           ; SOURCE LINE # 953
                                           ; SOURCE LINE # 954
0126 7F03              MOV     R7,#03H
0128 120000      R     LCALL   _CyClockStartupError
                                           ; SOURCE LINE # 955
012B         ?C0022:
                                           ; SOURCE LINE # 958
012B 7B00              MOV     R3,#00H
C51 COMPILER V9.51   CYFITTER_CFG                                                          06/30/2014 14:50:27 PAGE 34  

012D 7A40              MOV     R2,#040H
012F 7904              MOV     R1,#04H
0131 7D00              MOV     R5,#00H
0133 7C01              MOV     R4,#01H
0135 120000      E     LCALL   _cywrite16
                                           ; SOURCE LINE # 959
0138 904004            MOV     DPTR,#04004H
013B 7407              MOV     A,#07H
013D F0                MOVX    @DPTR,A
                                           ; SOURCE LINE # 960
013E 904006            MOV     DPTR,#04006H
0141 E4                CLR     A
0142 F0                MOVX    @DPTR,A
                                           ; SOURCE LINE # 961
0143 904008            MOV     DPTR,#04008H
0146 7448              MOV     A,#048H
0148 F0                MOVX    @DPTR,A
                                           ; SOURCE LINE # 962
0149 904004            MOV     DPTR,#04004H
014C E4                CLR     A
014D F0                MOVX    @DPTR,A
                                           ; SOURCE LINE # 963
014E 904001            MOV     DPTR,#04001H
0151 7402              MOV     A,#02H
0153 F0                MOVX    @DPTR,A
                                           ; SOURCE LINE # 965
0154 9043A2            MOV     DPTR,#043A2H
0157 E0                MOVX    A,@DPTR
0158 FF                MOV     R7,A
0159 EF                MOV     A,R7
015A 443F              ORL     A,#03FH
015C FF                MOV     R7,A
015D 9043A2            MOV     DPTR,#043A2H
0160 EF                MOV     A,R7
0161 F0                MOVX    @DPTR,A
                                           ; SOURCE LINE # 966
0162 22                RET     
             ; FUNCTION ClockSetup (END)

             ; FUNCTION AnalogSetDefault (BEGIN)
                                           ; SOURCE LINE # 988
                                           ; SOURCE LINE # 989
                                           ; SOURCE LINE # 990
0000 7B0C              MOV     R3,#0CH
0002 7A01              MOV     R2,#01H
0004 79CF              MOV     R1,#0CFH
0006 120000      E     LCALL   _cyread8
0009 900000      R     MOV     DPTR,#bg_xover_inl_trim
000C EF                MOV     A,R7
000D F0                MOVX    @DPTR,A
                                           ; SOURCE LINE # 991
000E 900000      R     MOV     DPTR,#bg_xover_inl_trim
0011 E0                MOVX    A,@DPTR
0012 FF                MOV     R7,A
0013 EF                MOV     A,R7
0014 5407              ANL     A,#07H
0016 FF                MOV     R7,A
0017 90586E            MOV     DPTR,#0586EH
001A EF                MOV     A,R7
001B F0                MOVX    @DPTR,A
                                           ; SOURCE LINE # 992
001C 900000      R     MOV     DPTR,#bg_xover_inl_trim
C51 COMPILER V9.51   CYFITTER_CFG                                                          06/30/2014 14:50:27 PAGE 35  

001F E0                MOVX    A,@DPTR
0020 FF                MOV     R7,A
0021 EF                MOV     A,R7
0022 C4                SWAP    A
0023 540F              ANL     A,#0FH
0025 FF                MOV     R7,A
0026 EF                MOV     A,R7
0027 540F              ANL     A,#0FH
0029 FF                MOV     R7,A
002A 90586F            MOV     DPTR,#0586FH
002D EF                MOV     A,R7
002E F0                MOVX    @DPTR,A
                                           ; SOURCE LINE # 993
002F 905876            MOV     DPTR,#05876H
0032 7444              MOV     A,#044H
0034 F0                MOVX    @DPTR,A
                                           ; SOURCE LINE # 994
0035 22                RET     
             ; FUNCTION AnalogSetDefault (END)

             ; FUNCTION _SetAnalogRoutingPumps (BEGIN)
                                           ; SOURCE LINE # 1014
0000 900000      R     MOV     DPTR,#enabled
0003 EF                MOV     A,R7
0004 F0                MOVX    @DPTR,A
                                           ; SOURCE LINE # 1015
                                           ; SOURCE LINE # 1016
0005 905876            MOV     DPTR,#05876H
0008 E0                MOVX    A,@DPTR
0009 FF                MOV     R7,A
000A 900000      R     MOV     DPTR,#regValue
000D EF                MOV     A,R7
000E F0                MOVX    @DPTR,A
                                           ; SOURCE LINE # 1017
000F 900000      R     MOV     DPTR,#enabled
0012 E0                MOVX    A,@DPTR
0013 FF                MOV     R7,A
0014 EF                MOV     A,R7
0015 6010              JZ      ?C0025
                                           ; SOURCE LINE # 1018
                                           ; SOURCE LINE # 1019
0017 900000      R     MOV     DPTR,#regValue
001A E0                MOVX    A,@DPTR
001B FF                MOV     R7,A
001C EF                MOV     A,R7
001D 4400              ORL     A,#00H
001F FF                MOV     R7,A
0020 900000      R     MOV     DPTR,#regValue
0023 EF                MOV     A,R7
0024 F0                MOVX    @DPTR,A
                                           ; SOURCE LINE # 1020
0025 800E              SJMP    ?C0026
0027         ?C0025:
                                           ; SOURCE LINE # 1022
                                           ; SOURCE LINE # 1023
0027 900000      R     MOV     DPTR,#regValue
002A E0                MOVX    A,@DPTR
002B FF                MOV     R7,A
002C EF                MOV     A,R7
002D 54FF              ANL     A,#0FFH
002F FF                MOV     R7,A
0030 900000      R     MOV     DPTR,#regValue
C51 COMPILER V9.51   CYFITTER_CFG                                                          06/30/2014 14:50:27 PAGE 36  

0033 EF                MOV     A,R7
0034 F0                MOVX    @DPTR,A
                                           ; SOURCE LINE # 1024
0035         ?C0026:
                                           ; SOURCE LINE # 1025
0035 900000      R     MOV     DPTR,#regValue
0038 E0                MOVX    A,@DPTR
0039 FF                MOV     R7,A
003A 905876            MOV     DPTR,#05876H
003D EF                MOV     A,R7
003E F0                MOVX    @DPTR,A
                                           ; SOURCE LINE # 1026
003F 22                RET     
             ; FUNCTION _SetAnalogRoutingPumps (END)

             ; FUNCTION cyfitter_cfg (BEGIN)
                                           ; SOURCE LINE # 1048
                                           ; SOURCE LINE # 1049
                                           ; SOURCE LINE # 1087
0000 7B00              MOV     R3,#00H
0002 7A46              MOV     R2,#046H
0004 79E8              MOV     R1,#0E8H
0006 120000      E     LCALL   _cyread8
0009 EF                MOV     A,R7
000A 4401              ORL     A,#01H
000C FD                MOV     R5,A
000D 7B00              MOV     R3,#00H
000F 7A46              MOV     R2,#046H
0011 79E8              MOV     R1,#0E8H
0013 120000      E     LCALL   _cywrite8
                                           ; SOURCE LINE # 1089
                                           ; SOURCE LINE # 1090
0016 120000      R     LCALL   cfg_dma_init
                                           ; SOURCE LINE # 1093
0019 7B01              MOV     R3,#01H
001B 7A50              MOV     R2,#050H
001D 7903              MOV     R1,#03H
001F 120000      E     LCALL   _cyread8
0022 EF                MOV     A,R7
0023 4402              ORL     A,#02H
0025 FD                MOV     R5,A
0026 7B01              MOV     R3,#01H
0028 7A50              MOV     R2,#050H
002A 7903              MOV     R1,#03H
002C 120000      E     LCALL   _cywrite8
                                           ; SOURCE LINE # 1094
002F 7B01              MOV     R3,#01H
0031 7A50              MOV     R2,#050H
0033 7913              MOV     R1,#013H
0035 120000      E     LCALL   _cyread8
0038 EF                MOV     A,R7
0039 4402              ORL     A,#02H
003B FD                MOV     R5,A
003C 7B01              MOV     R3,#01H
003E 7A50              MOV     R2,#050H
0040 7913              MOV     R1,#013H
0042 120000      E     LCALL   _cywrite8
                                           ; SOURCE LINE # 1097
0045 9043A0            MOV     DPTR,#043A0H
0048 E0                MOVX    A,@DPTR
0049 FF                MOV     R7,A
004A EF                MOV     A,R7
C51 COMPILER V9.51   CYFITTER_CFG                                                          06/30/2014 14:50:27 PAGE 37  

004B 4440              ORL     A,#040H
004D FF                MOV     R7,A
004E 9043A0            MOV     DPTR,#043A0H
0051 EF                MOV     A,R7
0052 F0                MOVX    @DPTR,A
                                           ; SOURCE LINE # 1098
0053 9043C2            MOV     DPTR,#043C2H
0056 E0                MOVX    A,@DPTR
0057 FF                MOV     R7,A
0058 EF                MOV     A,R7
0059 4410              ORL     A,#010H
005B FF                MOV     R7,A
005C 9043C2            MOV     DPTR,#043C2H
005F EF                MOV     A,R7
0060 F0                MOVX    @DPTR,A
                                           ; SOURCE LINE # 1099
                                           ; SOURCE LINE # 1102
0061 7C00        R     MOV     R4,#HIGH BS_IOPINS0_0_VAL
0063 7D00        R     MOV     R5,#LOW BS_IOPINS0_0_VAL
0065 7B00              MOV     R3,#00H
0067 7A51              MOV     R2,#051H
0069 7900              MOV     R1,#00H
006B 7F0A              MOV     R7,#0AH
006D 7E00              MOV     R6,#00H
006F 120000      E     LCALL   _cyconfigcpycode
                                           ; SOURCE LINE # 1103
0072 7C00        R     MOV     R4,#HIGH BS_IOPINS0_7_VAL
0074 7D00        R     MOV     R5,#LOW BS_IOPINS0_7_VAL
0076 7B00              MOV     R3,#00H
0078 7A51              MOV     R2,#051H
007A 79C2              MOV     R1,#0C2H
007C 7F08              MOV     R7,#08H
007E 7E00              MOV     R6,#00H
0080 120000      E     LCALL   _cyconfigcpycode
                                           ; SOURCE LINE # 1104
0083 7C00        R     MOV     R4,#HIGH BS_IOPINS0_8_VAL
0085 7D00        R     MOV     R5,#LOW BS_IOPINS0_8_VAL
0087 7B00              MOV     R3,#00H
0089 7A51              MOV     R2,#051H
008B 79F2              MOV     R1,#0F2H
008D 7F08              MOV     R7,#08H
008F 7E00              MOV     R6,#00H
0091 120000      E     LCALL   _cyconfigcpycode
                                           ; SOURCE LINE # 1105
0094 7C00        R     MOV     R4,#HIGH BS_IOPINS0_1_VAL
0096 7D00        R     MOV     R5,#LOW BS_IOPINS0_1_VAL
0098 7B00              MOV     R3,#00H
009A 7A51              MOV     R2,#051H
009C 7912              MOV     R1,#012H
009E 7F08              MOV     R7,#08H
00A0 7E00              MOV     R6,#00H
00A2 120000      E     LCALL   _cyconfigcpycode
                                           ; SOURCE LINE # 1106
00A5 7C00        R     MOV     R4,#HIGH BS_IOPINS0_2_VAL
00A7 7D00        R     MOV     R5,#LOW BS_IOPINS0_2_VAL
00A9 7B00              MOV     R3,#00H
00AB 7A51              MOV     R2,#051H
00AD 7922              MOV     R1,#022H
00AF 7F08              MOV     R7,#08H
00B1 7E00              MOV     R6,#00H
00B3 120000      E     LCALL   _cyconfigcpycode
                                           ; SOURCE LINE # 1107
C51 COMPILER V9.51   CYFITTER_CFG                                                          06/30/2014 14:50:27 PAGE 38  

00B6 7C00        R     MOV     R4,#HIGH BS_IOPINS0_3_VAL
00B8 7D00        R     MOV     R5,#LOW BS_IOPINS0_3_VAL
00BA 7B00              MOV     R3,#00H
00BC 7A51              MOV     R2,#051H
00BE 7930              MOV     R1,#030H
00C0 7F0A              MOV     R7,#0AH
00C2 7E00              MOV     R6,#00H
00C4 120000      E     LCALL   _cyconfigcpycode
                                           ; SOURCE LINE # 1108
00C7 7C00        R     MOV     R4,#HIGH BS_IOPINS0_4_VAL
00C9 7D00        R     MOV     R5,#LOW BS_IOPINS0_4_VAL
00CB 7B00              MOV     R3,#00H
00CD 7A51              MOV     R2,#051H
00CF 7940              MOV     R1,#040H
00D1 7F0A              MOV     R7,#0AH
00D3 7E00              MOV     R6,#00H
00D5 120000      E     LCALL   _cyconfigcpycode
                                           ; SOURCE LINE # 1109
00D8 7C00        R     MOV     R4,#HIGH BS_IOPINS0_5_VAL
00DA 7D00        R     MOV     R5,#LOW BS_IOPINS0_5_VAL
00DC 7B00              MOV     R3,#00H
00DE 7A51              MOV     R2,#051H
00E0 7950              MOV     R1,#050H
00E2 7F0A              MOV     R7,#0AH
00E4 7E00              MOV     R6,#00H
00E6 120000      E     LCALL   _cyconfigcpycode
                                           ; SOURCE LINE # 1110
00E9 7C00        R     MOV     R4,#HIGH BS_IOPINS0_6_VAL
00EB 7D00        R     MOV     R5,#LOW BS_IOPINS0_6_VAL
00ED 7B00              MOV     R3,#00H
00EF 7A51              MOV     R2,#051H
00F1 7962              MOV     R1,#062H
00F3 7F08              MOV     R7,#08H
00F5 7E00              MOV     R6,#00H
00F7 120000      E     LCALL   _cyconfigcpycode
                                           ; SOURCE LINE # 1111
00FA 7B01              MOV     R3,#01H
00FC 7A0C              MOV     R2,#0CH
00FE 79DB              MOV     R1,#0DBH
0100 7D44              MOV     R5,#044H
0102 120000      E     LCALL   _cywrite8
                                           ; SOURCE LINE # 1112
0105 7B01              MOV     R3,#01H
0107 7A1A              MOV     R2,#01AH
0109 79DB              MOV     R1,#0DBH
010B 7DA4              MOV     R5,#0A4H
010D 120000      E     LCALL   _cywrite8
                                           ; SOURCE LINE # 1113
0110 9044F4            MOV     DPTR,#044F4H
0113 7401              MOV     A,#01H
0115 F0                MOVX    @DPTR,A
                                           ; SOURCE LINE # 1116
0116 904322            MOV     DPTR,#04322H
0119 E0                MOVX    A,@DPTR
011A FF                MOV     R7,A
011B EF                MOV     A,R7
011C 4408              ORL     A,#08H
011E FF                MOV     R7,A
011F 904322            MOV     DPTR,#04322H
0122 EF                MOV     A,R7
0123 F0                MOVX    @DPTR,A
                                           ; SOURCE LINE # 1117
C51 COMPILER V9.51   CYFITTER_CFG                                                          06/30/2014 14:50:27 PAGE 39  

0124 9046EC            MOV     DPTR,#046ECH
0127 E0                MOVX    A,@DPTR
0128 FF                MOV     R7,A
0129 EF                MOV     A,R7
012A C3                CLR     C
012B 9405              SUBB    A,#05H
012D 5006              JNC     ?C0028
                                           ; SOURCE LINE # 1118
                                           ; SOURCE LINE # 1119
012F 904689            MOV     DPTR,#04689H
0132 743A              MOV     A,#03AH
0134 F0                MOVX    @DPTR,A
                                           ; SOURCE LINE # 1120
0135         ?C0028:
                                           ; SOURCE LINE # 1124
0135 904800            MOV     DPTR,#04800H
0138 74C0              MOV     A,#0C0H
013A F0                MOVX    @DPTR,A
                                           ; SOURCE LINE # 1126
013B 120000      R     LCALL   ClockSetup
                                           ; SOURCE LINE # 1128
013E 904800            MOV     DPTR,#04800H
0141 7480              MOV     A,#080H
0143 F0                MOVX    @DPTR,A
                                           ; SOURCE LINE # 1131
0144 120000      R     LCALL   AnalogSetDefault
                                           ; SOURCE LINE # 1134
0147 7B00              MOV     R3,#00H
0149 7A43              MOV     R2,#043H
014B 79A0              MOV     R1,#0A0H
014D C003              PUSH    AR3
014F C002              PUSH    AR2
0151 C001              PUSH    AR1
0153 7B00              MOV     R3,#00H
0155 7A43              MOV     R2,#043H
0157 79B0              MOV     R1,#0B0H
0159 900000      E     MOV     DPTR,#?_cyconfigcpy?BYTE+05H
015C 120000      E     LCALL   ?C?PSTXDATA
015F D001              POP     AR1
0161 D002              POP     AR2
0163 D003              POP     AR3
0165 7F0E              MOV     R7,#0EH
0167 7E00              MOV     R6,#00H
0169 120000      E     LCALL   _cyconfigcpy
                                           ; SOURCE LINE # 1135
016C 9043B0            MOV     DPTR,#043B0H
016F E0                MOVX    A,@DPTR
0170 FF                MOV     R7,A
0171 EF                MOV     A,R7
0172 54FD              ANL     A,#0FDH
0174 FF                MOV     R7,A
0175 EF                MOV     A,R7
0176 F0                MOVX    @DPTR,A
                                           ; SOURCE LINE # 1136
0177 22                RET     
             ; FUNCTION cyfitter_cfg (END)



MODULE INFORMATION:   STATIC OVERLAYABLE
   CODE SIZE        =   1102    ----
   CONSTANT SIZE    =   7845    ----
C51 COMPILER V9.51   CYFITTER_CFG                                                          06/30/2014 14:50:27 PAGE 40  

   XDATA SIZE       =      4       9
   PDATA SIZE       =   ----    ----
   DATA SIZE        =   ----    ----
   IDATA SIZE       =   ----    ----
   BIT SIZE         =   ----    ----
   EDATA SIZE       =   ----    ----
   HDATA SIZE       =   ----    ----
   XDATA CONST SIZE =   ----    ----
   FAR CONST SIZE   =   ----    ----
END OF MODULE INFORMATION.


C51 COMPILATION COMPLETE.  0 WARNING(S),  0 ERROR(S)
