C51 COMPILER V9.51   TASK1                                                                 07/01/2014 18:20:50 PAGE 1   


C51 COMPILER V9.51, COMPILATION OF MODULE TASK1
OBJECT MODULE PLACED IN .\DP8051\DP8051_Keil_951\Debug\TASK1.obj
COMPILER INVOKED BY: C:\Program Files\Cypress\PSoC Creator\3.0\PSoC Creator\import\keil\pk51\9.51\C51\BIN\c51.exe .\TASK
                    -1.c NOIV LARGE MODDP2 OMF2 VB(1) PR(.\DP8051\DP8051_Keil_951\Debug\TASK1.lst) CD DB NOIP OT(2,SIZE) INCDIR(.,.\Generated
                    -_Source\PSoC3) OJ(.\DP8051\DP8051_Keil_951\Debug\TASK1.obj)

line level    source

   1          /* ========================================
   2           *
   3           * Copyright QMAX, 2012
   4           * All Rights Reserved
   5           * UNPUBLISHED, LICENSED SOFTWARE.
   6           *
   7           * CONFIDENTIAL AND PROPRIETARY INFORMATION
   8           * WHICH IS THE PROPERTY OF QMAX.
   9           *
  10           * ========================================
  11          */
  12          
  13          #include "TASK1.h"
  14          #include "TASK2.h"
  15          #include "TASK3.h"
  16          
  17          unsigned char prnt_en,i,prt_12,prt_15,prt_12_15,ucKey1Read,ucKey2Read,dat_cnt,cmd_exct;
  18          unsigned char RLY_PRT_STS,val,pos,tst_ch,ref_ch,tst_bank,ref_bank,prt_12_s,e_prb_sts,VI,ShL;
  19          unsigned char spi_tst_ch_tmp,spi_tst_ch_tmp1,spi_ref_ch_tmp,spi_ref_ch_tmp1,SC1,SC2,FG,DMM;
  20          uint16 delay=0x000A;
  21          uint16 swtch_delay=0x0001;
  22          
  23          unsigned char tp1[24];
  24          unsigned char k;
  25          unsigned char localCMD;
  26          void task1 (void) _task_ 1
  27          {
  28   1              uint8 p=0,k;
  29   1              for(;;)
  30   1              {
  31   2                      os_wait1(K_SIG);                                        //      Wait for Signal from TASK 2
  32   2                      
  33   2                      if(prnt_en)
  34   2                      {
  35   3                              p=i-1;
  36   3                              if(i == 0x00)                                   //      If Local Buffer is empty or overrun Print 0 else Print data
  37   3                              {
  38   4                                      UART_PutString("***#");                 //      STATUS ACKNOWLEDGEMENT to uP    //
  39   4                                      while(!(UART_ReadTxStatus() & UART_TX_STS_FIFO_EMPTY))
  40   4                                      {
  41   5                                              ;
  42   5                                      }
  43   4                                      
  44   4                                      UART_WriteTxData(rx_word[1]);
  45   4                              }
  46   3                              else
  47   3                              {
  48   4                                      UART_PutString("***#");                 //      STATUS ACKNOWLEDGEMENT to uP    //
  49   4                                      while(!(UART_ReadTxStatus() & UART_TX_STS_FIFO_EMPTY))
  50   4                                      {
  51   5                                              ;
  52   5                                      }
  53   4                                      for(k=0 ; k <= p ; k++)
C51 COMPILER V9.51   TASK1                                                                 07/01/2014 18:20:50 PAGE 2   

  54   4                                      {
  55   5                                              UART_WriteTxData(rx_word[k]);
  56   5                                              while(!(UART_ReadTxStatus() & UART_TX_STS_FIFO_EMPTY))
  57   5                                              {
  58   6                                                      ;
  59   6                                              }
  60   5                                      }
  61   4                              }
  62   3                              prnt_en = 0;
  63   3                      }
  64   2                      else
  65   2                      {
  66   3                              switching_main(&switch_cmd);
  67   3                      }
  68   2          }    
  69   1      }
  70          void SRCIMP_Init(void){
  71   1          if (CyPins_ReadPin(SRC_0_P2_6))
  72   1                      CyPins_ClearPin(SRC_0_P2_6);
  73   1              
  74   1              if (CyPins_ReadPin(SRC_1_P2_7))
  75   1                      CyPins_ClearPin(SRC_1_P2_7);
  76   1              
  77   1              if (CyPins_ReadPin(SRC_2_P12_4))
  78   1                      CyPins_ClearPin(SRC_2_P12_4);
  79   1              
  80   1              if (CyPins_ReadPin(SRC_3_P12_5))
  81   1                      CyPins_ClearPin(SRC_3_P12_5);
  82   1      
  83   1          if (CyPins_ReadPin(SRC_4_P6_4))
  84   1                      CyPins_ClearPin(SRC_4_P6_4);
  85   1      }
  86          void Relays_Init()                                                      // Relays Initialize
  87          {
  88   1              if (CyPins_ReadPin(PC_VI_2SEL0_P2_5))
  89   1                      CyPins_ClearPin(PC_VI_2SEL0_P2_5);
  90   1              
  91   1              if (CyPins_ReadPin(PC_VI_2SEL1_P2_4))
  92   1                      CyPins_ClearPin(PC_VI_2SEL1_P2_4);
  93   1              
  94   1              if (CyPins_ReadPin(BICM_SEL_P2_2))
  95   1                      CyPins_ClearPin(BICM_SEL_P2_2);
  96   1              
  97   1              if (CyPins_ReadPin(BFG1_SEL_P2_3))
  98   1                      CyPins_ClearPin(BFG1_SEL_P2_3);
  99   1              
 100   1              if (CyPins_ReadPin(MUXASEL_P2_1))
 101   1                      CyPins_ClearPin(MUXASEL_P2_1);
 102   1              
 103   1                
 104   1              
 105   1      }
 106          
 107          void k1_k2_check()                                                      //      Subroutine to Check Connection of Probe 1 & 2
 108          {
 109   1              ucKey1Read  = CyPins_ReadPin(K1_SENSE_P0_3);
 110   1              ucKey2Read  = CyPins_ReadPin(K2_SENSE_P4_1);
 111   1      }
 112          
 113          
 114          void Test_Chnl_Switch(val_t)
 115          {
C51 COMPILER V9.51   TASK1                                                                 07/01/2014 18:20:50 PAGE 3   

*** WARNING C235 IN LINE 115 OF .\TASK1.c: parameter 1: different types
 116   1              uint16 temp=0x0000;
 117   1              uint8 temp1;
 118   1              
 119   1              if(val_t <= 0x0F)
 120   1              {
 121   2                      temp    = 0x0001 << val_t;
 122   2                      temp1   = temp >> 0x08;
 123   2                      
 124   2                      CyPins_ClearPin(CSN_P5_4);
 125   2                      
 126   2                      SPIM_WriteTxData(0x00);
 127   2                      SPIM_WriteTxData(temp1);
 128   2                      SPIM_WriteTxData(temp);
 129   2                      while(!(SPIM_ReadTxStatus() & SPIM_STS_TX_FIFO_EMPTY)){;}
 130   2      
 131   2                      CyDelayUs(15);
 132   2      
 133   2                      CyPins_SetPin(CSN_P5_4);
 134   2                      
 135   2                      CyDelayUs(20);
 136   2                      
 137   2                      CyPins_ClearPin(CSN_P5_4);
 138   2                      
 139   2                      SPIM_WriteTxData(0x01);
 140   2                      SPIM_WriteTxData(0x00);
 141   2                      SPIM_WriteTxData(0x00);
 142   2                      while(!(SPIM_ReadTxStatus() & SPIM_STS_TX_FIFO_EMPTY)){;}
 143   2                      
 144   2                      CyDelayUs(15);
 145   2                      
 146   2                      CyPins_SetPin(CSN_P5_4);
 147   2                      
 148   2                      CyDelayUs(20);
 149   2                      
 150   2                      CyPins_ClearPin(CSN_P5_4);
 151   2                      
 152   2                      SPIM_WriteTxData(0x02);
 153   2                      SPIM_WriteTxData(0x00);
 154   2                      SPIM_WriteTxData(0x00);
 155   2                      while(!(SPIM_ReadTxStatus() & SPIM_STS_TX_FIFO_EMPTY)){;}
 156   2                      
 157   2                      CyDelayUs(15);
 158   2                      
 159   2                      CyPins_SetPin(CSN_P5_4);
 160   2                      
 161   2                      CyDelayUs(20);
 162   2                      
 163   2                      CyPins_ClearPin(CSN_P5_4);
 164   2                      
 165   2                      SPIM_WriteTxData(0x03);
 166   2                      SPIM_WriteTxData(0x00);
 167   2                      SPIM_WriteTxData(0x00);
 168   2                      while(!(SPIM_ReadTxStatus() & SPIM_STS_TX_FIFO_EMPTY)){;}
 169   2                      
 170   2                      CyDelayUs(15);
 171   2                      
 172   2                      CyPins_SetPin(CSN_P5_4);
 173   2                      
 174   2                      CyDelayUs(20);
 175   2                      
 176   2                      CyPins_ClearPin(CSN_P5_4);
C51 COMPILER V9.51   TASK1                                                                 07/01/2014 18:20:50 PAGE 4   

 177   2                      
 178   2                      SPIM_WriteTxData(0x08);
 179   2                      SPIM_WriteTxData(0x00);
 180   2                      SPIM_WriteTxData(0x11);
 181   2                      while(!(SPIM_ReadTxStatus() & SPIM_STS_TX_FIFO_EMPTY)){;}
 182   2                      
 183   2                      CyDelayUs(15);
 184   2                      
 185   2                      CyPins_SetPin(CSN_P5_4);
 186   2                      
 187   2                      CyDelayUs(20);
 188   2                      
 189   2                      CyPins_ClearPin(CSN_P5_4);
 190   2                      
 191   2                      SPIM_WriteTxData(0x0F);
 192   2                      SPIM_WriteTxData(0x00);
 193   2                      SPIM_WriteTxData(0x00);
 194   2                      while(!(SPIM_ReadTxStatus() & SPIM_STS_TX_FIFO_EMPTY)){;}
 195   2                      
 196   2                      CyDelayUs(15);
 197   2                      
 198   2                      CyPins_SetPin(CSN_P5_4);
 199   2                      
 200   2              }
 201   1              else if(val_t >= 0x10 && val_t <= 0x1F)
 202   1              {
 203   2                      val_t = val_t - 0x10;
 204   2                      temp    = 0x0001 << val_t;
 205   2                      temp1   = temp >> 0x08;         
 206   2                      
 207   2                      CyPins_ClearPin(CSN_P5_4);
 208   2                      
 209   2                      SPIM_WriteTxData(0x00);
 210   2                      SPIM_WriteTxData(0x00);
 211   2                      SPIM_WriteTxData(0x00);
 212   2                      while(!(SPIM_ReadTxStatus() & SPIM_STS_TX_FIFO_EMPTY)){;}
 213   2                      
 214   2                      CyDelayUs(15);
 215   2                      
 216   2                      CyPins_SetPin(CSN_P5_4);
 217   2                      
 218   2                      CyDelayUs(20);
 219   2                      
 220   2                      CyPins_ClearPin(CSN_P5_4);
 221   2                      
 222   2                      SPIM_WriteTxData(0x01);
 223   2                      SPIM_WriteTxData(temp1);
 224   2                      SPIM_WriteTxData(temp);
 225   2                      while(!(SPIM_ReadTxStatus() & SPIM_STS_TX_FIFO_EMPTY)){;}
 226   2                      
 227   2                      CyDelayUs(15);
 228   2                      
 229   2                      CyPins_SetPin(CSN_P5_4);
 230   2                      
 231   2                      CyDelayUs(20);
 232   2                      
 233   2                      CyPins_ClearPin(CSN_P5_4);
 234   2                      
 235   2                      SPIM_WriteTxData(0x02);
 236   2                      SPIM_WriteTxData(0x00);
 237   2                      SPIM_WriteTxData(0x00);
 238   2                      while(!(SPIM_ReadTxStatus() & SPIM_STS_TX_FIFO_EMPTY)){;}
C51 COMPILER V9.51   TASK1                                                                 07/01/2014 18:20:50 PAGE 5   

 239   2                      
 240   2                      CyDelayUs(15);
 241   2                      
 242   2                      CyPins_SetPin(CSN_P5_4);
 243   2                      
 244   2                      CyDelayUs(20);
 245   2                      
 246   2                      CyPins_ClearPin(CSN_P5_4);
 247   2                      
 248   2                      SPIM_WriteTxData(0x03);
 249   2                      SPIM_WriteTxData(0x00);
 250   2                      SPIM_WriteTxData(0x00);
 251   2                      while(!(SPIM_ReadTxStatus() & SPIM_STS_TX_FIFO_EMPTY)){;}
 252   2                      
 253   2                      CyDelayUs(15);
 254   2                      
 255   2                      CyPins_SetPin(CSN_P5_4);
 256   2                      
 257   2                      CyDelayUs(20);
 258   2                      
 259   2                      CyPins_ClearPin(CSN_P5_4);
 260   2                      
 261   2                      SPIM_WriteTxData(0x08);
 262   2                      SPIM_WriteTxData(0x00);
 263   2                      SPIM_WriteTxData(0x12);
 264   2                      while(!(SPIM_ReadTxStatus() & SPIM_STS_TX_FIFO_EMPTY)){;}
 265   2                      
 266   2                      CyDelayUs(15);
 267   2                      
 268   2                      CyPins_SetPin(CSN_P5_4);
 269   2                      
 270   2                      CyDelayUs(20);
 271   2                      
 272   2                      CyPins_ClearPin(CSN_P5_4);
 273   2                      
 274   2                      SPIM_WriteTxData(0x0F);
 275   2                      SPIM_WriteTxData(0x00);
 276   2                      SPIM_WriteTxData(0x00);
 277   2                      while(!(SPIM_ReadTxStatus() & SPIM_STS_TX_FIFO_EMPTY)){;}
 278   2                      
 279   2                      CyDelayUs(15);
 280   2                      
 281   2                      CyPins_SetPin(CSN_P5_4);
 282   2              }
 283   1              else if(val_t >= 0x20 && val_t <= 0x2F)
 284   1              {
 285   2                      val_t = val_t - 0x20;
 286   2                      temp    = 0x0001 << val_t;
 287   2                      temp1   = temp >> 0x08;
 288   2                      
 289   2                      CyPins_ClearPin(CSN_P5_4);
 290   2                      
 291   2                      SPIM_WriteTxData(0x00);
 292   2                      SPIM_WriteTxData(0x00);
 293   2                      SPIM_WriteTxData(0x00);
 294   2                      while(!(SPIM_ReadTxStatus() & SPIM_STS_TX_FIFO_EMPTY)){;}
 295   2                      
 296   2                      CyDelayUs(15);
 297   2                      
 298   2                      CyPins_SetPin(CSN_P5_4);
 299   2                      
 300   2                      CyDelayUs(20);
C51 COMPILER V9.51   TASK1                                                                 07/01/2014 18:20:50 PAGE 6   

 301   2                      
 302   2                      CyPins_ClearPin(CSN_P5_4);
 303   2                      
 304   2                      SPIM_WriteTxData(0x01);
 305   2                      SPIM_WriteTxData(0x00);
 306   2                      SPIM_WriteTxData(0x00);
 307   2                      while(!(SPIM_ReadTxStatus() & SPIM_STS_TX_FIFO_EMPTY)){;}
 308   2                      
 309   2                      CyDelayUs(15);
 310   2                      
 311   2                      CyPins_SetPin(CSN_P5_4);
 312   2                      
 313   2                      CyDelayUs(20);
 314   2                      
 315   2                      CyPins_ClearPin(CSN_P5_4);
 316   2                      
 317   2                      SPIM_WriteTxData(0x02);
 318   2                      SPIM_WriteTxData(temp1);
 319   2                      SPIM_WriteTxData(temp);
 320   2                      while(!(SPIM_ReadTxStatus() & SPIM_STS_TX_FIFO_EMPTY)){;}
 321   2                      
 322   2                      CyDelayUs(15);
 323   2                      
 324   2                      CyPins_SetPin(CSN_P5_4);
 325   2                      
 326   2                      CyDelayUs(20);
 327   2      
 328   2                      CyPins_ClearPin(CSN_P5_4);
 329   2      
 330   2                      SPIM_WriteTxData(0x03);
 331   2                      SPIM_WriteTxData(0x00);
 332   2                      SPIM_WriteTxData(0x00);
 333   2                      while(!(SPIM_ReadTxStatus() & SPIM_STS_TX_FIFO_EMPTY)){;}
 334   2                      
 335   2                      CyDelayUs(15);
 336   2                      
 337   2                      CyPins_SetPin(CSN_P5_4);
 338   2                      
 339   2                      CyDelayUs(20);
 340   2                      
 341   2                      CyPins_ClearPin(CSN_P5_4);
 342   2                      
 343   2                      SPIM_WriteTxData(0x08);
 344   2                      SPIM_WriteTxData(0x00);
 345   2                      SPIM_WriteTxData(0x14);
 346   2                      while(!(SPIM_ReadTxStatus() & SPIM_STS_TX_FIFO_EMPTY)){;}
 347   2                      
 348   2                      CyDelayUs(15);
 349   2                      
 350   2                      CyPins_SetPin(CSN_P5_4);
 351   2                      
 352   2                      CyDelayUs(20);
 353   2                      
 354   2                      CyPins_ClearPin(CSN_P5_4);
 355   2                      
 356   2                      SPIM_WriteTxData(0x0F);
 357   2                      SPIM_WriteTxData(0x00);
 358   2                      SPIM_WriteTxData(0x00);
 359   2                      while(!(SPIM_ReadTxStatus() & SPIM_STS_TX_FIFO_EMPTY)){;}
 360   2                      
 361   2                      CyDelayUs(15);
 362   2                      
C51 COMPILER V9.51   TASK1                                                                 07/01/2014 18:20:50 PAGE 7   

 363   2                      CyPins_SetPin(CSN_P5_4);
 364   2              }
 365   1              else if(val_t >= 0x30 && val_t <= 0x3F)
 366   1              {
 367   2                      val_t = val_t - 0x30;
 368   2                      temp    = 0x0001 << val_t;
 369   2                      temp1   = temp >> 0x08;
 370   2      
 371   2                      CyPins_ClearPin(CSN_P5_4);
 372   2                      
 373   2                      SPIM_WriteTxData(0x00);
 374   2                      SPIM_WriteTxData(0x00);
 375   2                      SPIM_WriteTxData(0x00);
 376   2                      while(!(SPIM_ReadTxStatus() & SPIM_STS_TX_FIFO_EMPTY)){;}
 377   2                      
 378   2                      CyDelayUs(15);
 379   2                      
 380   2                      CyPins_SetPin(CSN_P5_4);
 381   2                      
 382   2                      CyDelayUs(20);
 383   2                      
 384   2                      CyPins_ClearPin(CSN_P5_4);
 385   2                      
 386   2                      SPIM_WriteTxData(0x01);
 387   2                      SPIM_WriteTxData(0x00);
 388   2                      SPIM_WriteTxData(0x00);
 389   2                      while(!(SPIM_ReadTxStatus() & SPIM_STS_TX_FIFO_EMPTY)){;}
 390   2                      
 391   2                      CyDelayUs(15);
 392   2                      
 393   2                      CyPins_SetPin(CSN_P5_4);
 394   2                      
 395   2                      CyDelayUs(20);
 396   2                      
 397   2                      CyPins_ClearPin(CSN_P5_4);
 398   2                      
 399   2                      SPIM_WriteTxData(0x02);
 400   2                      SPIM_WriteTxData(0x00);
 401   2                      SPIM_WriteTxData(0x00);
 402   2                      while(!(SPIM_ReadTxStatus() & SPIM_STS_TX_FIFO_EMPTY)){;}
 403   2                      
 404   2                      CyDelayUs(15);
 405   2                      
 406   2                      CyPins_SetPin(CSN_P5_4);
 407   2                      
 408   2                      CyDelayUs(20);
 409   2                      
 410   2                      CyPins_ClearPin(CSN_P5_4);
 411   2                      
 412   2                      SPIM_WriteTxData(0x03);
 413   2                      SPIM_WriteTxData(temp1);
 414   2                      SPIM_WriteTxData(temp);
 415   2                      while(!(SPIM_ReadTxStatus() & SPIM_STS_TX_FIFO_EMPTY)){;}
 416   2                      
 417   2                      CyDelayUs(15);
 418   2                      
 419   2                      CyPins_SetPin(CSN_P5_4);
 420   2                      
 421   2                      CyDelayUs(20);
 422   2      
 423   2                      CyPins_ClearPin(CSN_P5_4);
 424   2      
C51 COMPILER V9.51   TASK1                                                                 07/01/2014 18:20:50 PAGE 8   

 425   2                      SPIM_WriteTxData(0x08);
 426   2                      SPIM_WriteTxData(0x00);
 427   2                      SPIM_WriteTxData(0x18);
 428   2                      while(!(SPIM_ReadTxStatus() & SPIM_STS_TX_FIFO_EMPTY)){;}
 429   2                      
 430   2                      CyDelayUs(15);
 431   2                      
 432   2                      CyPins_SetPin(CSN_P5_4);
 433   2                      
 434   2                      CyDelayUs(20);
 435   2                      
 436   2                      CyPins_ClearPin(CSN_P5_4);
 437   2                      
 438   2                      SPIM_WriteTxData(0x0F);
 439   2                      SPIM_WriteTxData(0x00);
 440   2                      SPIM_WriteTxData(0x00);
 441   2                      while(!(SPIM_ReadTxStatus() & SPIM_STS_TX_FIFO_EMPTY)){;}
 442   2                      
 443   2                      CyDelayUs(15);
 444   2                      
 445   2                      CyPins_SetPin(CSN_P5_4);
 446   2              }
 447   1              else
 448   1              {
 449   2              
 450   2                      CyPins_ClearPin(CSN_P5_4);
 451   2                      
 452   2                      SPIM_WriteTxData(0x00);
 453   2                      SPIM_WriteTxData(0x00);
 454   2                      SPIM_WriteTxData(0x00);
 455   2                      while(!(SPIM_ReadTxStatus() & SPIM_STS_TX_FIFO_EMPTY)){;}
 456   2                      
 457   2                      CyDelayUs(15);
 458   2                      
 459   2                      CyPins_SetPin(CSN_P5_4);
 460   2                      
 461   2                      CyDelayUs(20);
 462   2                      
 463   2                      CyPins_ClearPin(CSN_P5_4);
 464   2                      
 465   2                      SPIM_WriteTxData(0x01);
 466   2                      SPIM_WriteTxData(0x00);
 467   2                      SPIM_WriteTxData(0x00);
 468   2                      while(!(SPIM_ReadTxStatus() & SPIM_STS_TX_FIFO_EMPTY)){;}
 469   2                      
 470   2                      CyDelayUs(15);
 471   2                      
 472   2                      CyPins_SetPin(CSN_P5_4);
 473   2                      
 474   2                      CyDelayUs(20);
 475   2                      
 476   2                      CyPins_ClearPin(CSN_P5_4);
 477   2                      
 478   2                      SPIM_WriteTxData(0x02);
 479   2                      SPIM_WriteTxData(0x00);
 480   2                      SPIM_WriteTxData(0x00);
 481   2                      while(!(SPIM_ReadTxStatus() & SPIM_STS_TX_FIFO_EMPTY)){;}
 482   2                      
 483   2                      CyDelayUs(15);
 484   2                      
 485   2                      CyPins_SetPin(CSN_P5_4);
 486   2                      
C51 COMPILER V9.51   TASK1                                                                 07/01/2014 18:20:50 PAGE 9   

 487   2                      CyDelayUs(20);
 488   2      
 489   2                      CyPins_ClearPin(CSN_P5_4);
 490   2      
 491   2                      SPIM_WriteTxData(0x03);
 492   2                      SPIM_WriteTxData(0x00);
 493   2                      SPIM_WriteTxData(0x00);
 494   2                      while(!(SPIM_ReadTxStatus() & SPIM_STS_TX_FIFO_EMPTY)){;}
 495   2                      
 496   2                      CyDelayUs(15);
 497   2                      
 498   2                      CyPins_SetPin(CSN_P5_4);
 499   2                      
 500   2                      CyDelayUs(20);
 501   2      
 502   2                      CyPins_ClearPin(CSN_P5_4);
 503   2      
 504   2                      SPIM_WriteTxData(0x08);
 505   2                      SPIM_WriteTxData(0x00);
 506   2                      SPIM_WriteTxData(0x00);
 507   2                      while(!(SPIM_ReadTxStatus() & SPIM_STS_TX_FIFO_EMPTY)){;}
 508   2                      
 509   2                      CyDelayUs(15);
 510   2                      
 511   2                      CyPins_SetPin(CSN_P5_4);
 512   2                      
 513   2                      CyDelayUs(20);
 514   2                      
 515   2                      CyPins_ClearPin(CSN_P5_4);
 516   2                      
 517   2                      SPIM_WriteTxData(0x0F);
 518   2                      SPIM_WriteTxData(0x00);
 519   2                      SPIM_WriteTxData(0x00);
 520   2                      while(!(SPIM_ReadTxStatus() & SPIM_STS_TX_FIFO_EMPTY)){;}
 521   2                      
 522   2                      CyDelayUs(15);
 523   2                      
 524   2                      CyPins_SetPin(CSN_P5_4);
 525   2              }
 526   1              CyDelay(10);
 527   1      }
 528          
 529          void Ref_Chnl_Switch(val_r)
 530          {
*** WARNING C235 IN LINE 530 OF .\TASK1.c: parameter 1: different types
 531   1              uint16 temp=0x0000;
 532   1              uint8 temp1;
 533   1      
 534   1              if(val_r <= 0x0F)
 535   1              {
 536   2                      temp    = 0x0001 << val_r;
 537   2                      temp1   = temp >> 0x08;
 538   2                      
 539   2                      CyPins_ClearPin(CSN_P5_4);
 540   2                      
 541   2                      SPIM_WriteTxData(0x04);
 542   2                      SPIM_WriteTxData(temp1);
 543   2                      SPIM_WriteTxData(temp);
 544   2                      while(!(SPIM_ReadTxStatus() & SPIM_STS_TX_FIFO_EMPTY)){;}
 545   2      
 546   2                      CyDelayUs(15);
 547   2                      
C51 COMPILER V9.51   TASK1                                                                 07/01/2014 18:20:50 PAGE 10  

 548   2                      CyPins_SetPin(CSN_P5_4);
 549   2                      
 550   2                      CyDelayUs(20);
 551   2                      
 552   2                      CyPins_ClearPin(CSN_P5_4);
 553   2                      
 554   2                      SPIM_WriteTxData(0x05);
 555   2                      SPIM_WriteTxData(0x00);
 556   2                      SPIM_WriteTxData(0x00);
 557   2                      while(!(SPIM_ReadTxStatus() & SPIM_STS_TX_FIFO_EMPTY)){;}
 558   2                      CyDelayUs(15);
 559   2                      
 560   2                      CyPins_SetPin(CSN_P5_4);
 561   2                      
 562   2                      CyDelayUs(20);
 563   2                      
 564   2                      CyPins_ClearPin(CSN_P5_4);
 565   2                      
 566   2                      SPIM_WriteTxData(0x06);
 567   2                      SPIM_WriteTxData(0x00);
 568   2                      SPIM_WriteTxData(0x00);
 569   2                      while(!(SPIM_ReadTxStatus() & SPIM_STS_TX_FIFO_EMPTY)){;}
 570   2                      
 571   2                      CyDelayUs(15);
 572   2                      
 573   2                      CyPins_SetPin(CSN_P5_4);
 574   2                      
 575   2                      CyDelayUs(20);
 576   2                      
 577   2                      CyPins_ClearPin(CSN_P5_4);
 578   2                      
 579   2                      SPIM_WriteTxData(0x07);
 580   2                      SPIM_WriteTxData(0x00);
 581   2                      SPIM_WriteTxData(0x00);
 582   2                      while(!(SPIM_ReadTxStatus() & SPIM_STS_TX_FIFO_EMPTY)){;}
 583   2                      CyDelayUs(15);
 584   2                      
 585   2                      CyPins_SetPin(CSN_P5_4);
 586   2                      
 587   2                      CyDelayUs(20);
 588   2                      
 589   2                      CyPins_ClearPin(CSN_P5_4);
 590   2                      
 591   2                      SPIM_WriteTxData(0x09);
 592   2                      SPIM_WriteTxData(0x00);
 593   2                      SPIM_WriteTxData(0x11);
 594   2                      while(!(SPIM_ReadTxStatus() & SPIM_STS_TX_FIFO_EMPTY)){;}
 595   2                      CyDelayUs(15);
 596   2                      
 597   2                      CyPins_SetPin(CSN_P5_4);
 598   2                      
 599   2                      CyDelayUs(20);
 600   2                      
 601   2                      CyPins_ClearPin(CSN_P5_4);
 602   2                      
 603   2                      SPIM_WriteTxData(0x0F);
 604   2                      SPIM_WriteTxData(0x00);
 605   2                      SPIM_WriteTxData(0x00);
 606   2                      while(!(SPIM_ReadTxStatus() & SPIM_STS_TX_FIFO_EMPTY)){;}
 607   2                      CyDelayUs(15);
 608   2                      
 609   2                      CyPins_SetPin(CSN_P5_4);
C51 COMPILER V9.51   TASK1                                                                 07/01/2014 18:20:50 PAGE 11  

 610   2              }
 611   1              else if(val_r >= 0x10 && val_r <= 0x1F)
 612   1              {
 613   2                      val_r = val_r - 0x10;
 614   2                      temp    = 0x0001 << val_r;
 615   2                      temp1   = temp >> 0x08;
 616   2                      
 617   2                      CyPins_ClearPin(CSN_P5_4);
 618   2                      
 619   2                      SPIM_WriteTxData(0x04);
 620   2                      SPIM_WriteTxData(0x00);
 621   2                      SPIM_WriteTxData(0x00);
 622   2                      while(!(SPIM_ReadTxStatus() & SPIM_STS_TX_FIFO_EMPTY)){;}
 623   2                      
 624   2                      CyDelayUs(15);
 625   2                      
 626   2                      CyPins_SetPin(CSN_P5_4);
 627   2                      
 628   2                      CyDelayUs(20);
 629   2                      
 630   2                      CyPins_ClearPin(CSN_P5_4);
 631   2                      
 632   2                      SPIM_WriteTxData(0x05);
 633   2                      SPIM_WriteTxData(temp1);
 634   2                      SPIM_WriteTxData(temp);
 635   2                      while(!(SPIM_ReadTxStatus() & SPIM_STS_TX_FIFO_EMPTY)){;}
 636   2                      
 637   2                      CyDelayUs(15);
 638   2                      
 639   2                      CyPins_SetPin(CSN_P5_4);
 640   2                      
 641   2                      CyDelayUs(20);
 642   2                      
 643   2                      CyPins_ClearPin(CSN_P5_4);
 644   2                      
 645   2                      SPIM_WriteTxData(0x06);
 646   2                      SPIM_WriteTxData(0x00);
 647   2                      SPIM_WriteTxData(0x00);
 648   2                      while(!(SPIM_ReadTxStatus() & SPIM_STS_TX_FIFO_EMPTY)){;}
 649   2                      
 650   2                      CyDelayUs(15);
 651   2                      
 652   2                      CyPins_SetPin(CSN_P5_4);
 653   2                      
 654   2                      CyDelayUs(20);
 655   2                      
 656   2                      CyPins_ClearPin(CSN_P5_4);
 657   2                      
 658   2                      SPIM_WriteTxData(0x07);
 659   2                      SPIM_WriteTxData(0x00);
 660   2                      SPIM_WriteTxData(0x00);
 661   2                      while(!(SPIM_ReadTxStatus() & SPIM_STS_TX_FIFO_EMPTY)){;}
 662   2                      
 663   2                      CyDelayUs(15);
 664   2                      
 665   2                      CyPins_SetPin(CSN_P5_4);
 666   2                      
 667   2                      CyDelayUs(20);
 668   2                      
 669   2                      CyPins_ClearPin(CSN_P5_4);
 670   2                      
 671   2                      SPIM_WriteTxData(0x09);
C51 COMPILER V9.51   TASK1                                                                 07/01/2014 18:20:50 PAGE 12  

 672   2                      SPIM_WriteTxData(0x00);
 673   2                      SPIM_WriteTxData(0x12);
 674   2                      while(!(SPIM_ReadTxStatus() & SPIM_STS_TX_FIFO_EMPTY)){;}
 675   2                      
 676   2                      CyDelayUs(15);
 677   2                      
 678   2                      CyPins_SetPin(CSN_P5_4);
 679   2                      
 680   2                      CyDelayUs(20);
 681   2                      
 682   2                      CyPins_ClearPin(CSN_P5_4);
 683   2                      
 684   2                      SPIM_WriteTxData(0x0F);
 685   2                      SPIM_WriteTxData(0x00);
 686   2                      SPIM_WriteTxData(0x00);
 687   2                      while(!(SPIM_ReadTxStatus() & SPIM_STS_TX_FIFO_EMPTY)){;}
 688   2                      
 689   2                      CyDelayUs(15);
 690   2                      
 691   2                      CyPins_SetPin(CSN_P5_4);
 692   2              }
 693   1              else if(val_r >= 0x20 && val_r <= 0x2F)
 694   1              {
 695   2                      val_r = val_r - 0x20;
 696   2                      temp    = 0x0001 << val_r;
 697   2                      temp1   = temp >> 0x08;
 698   2                      
 699   2                      CyPins_ClearPin(CSN_P5_4);
 700   2                      
 701   2                      SPIM_WriteTxData(0x04);
 702   2                      SPIM_WriteTxData(0x00);
 703   2                      SPIM_WriteTxData(0x00);
 704   2                      while(!(SPIM_ReadTxStatus() & SPIM_STS_TX_FIFO_EMPTY)){;}
 705   2                      
 706   2                      CyDelayUs(15);
 707   2                      
 708   2                      CyPins_SetPin(CSN_P5_4);
 709   2                      
 710   2                      CyDelayUs(20);
 711   2                      
 712   2                      CyPins_ClearPin(CSN_P5_4);
 713   2                      
 714   2                      SPIM_WriteTxData(0x05);
 715   2                      SPIM_WriteTxData(0x00);
 716   2                      SPIM_WriteTxData(0x00);
 717   2                      while(!(SPIM_ReadTxStatus() & SPIM_STS_TX_FIFO_EMPTY)){;}
 718   2                      
 719   2                      CyDelayUs(15);
 720   2                      
 721   2                      CyPins_SetPin(CSN_P5_4);
 722   2                      
 723   2                      CyDelayUs(20);
 724   2                      
 725   2                      CyPins_ClearPin(CSN_P5_4);
 726   2                      
 727   2                      SPIM_WriteTxData(0x06);
 728   2                      SPIM_WriteTxData(temp1);
 729   2                      SPIM_WriteTxData(temp);
 730   2                      while(!(SPIM_ReadTxStatus() & SPIM_STS_TX_FIFO_EMPTY)){;}
 731   2                      
 732   2                      CyDelayUs(15);
 733   2                      
C51 COMPILER V9.51   TASK1                                                                 07/01/2014 18:20:50 PAGE 13  

 734   2                      CyPins_SetPin(CSN_P5_4);
 735   2                      
 736   2                      CyDelayUs(20);
 737   2                      
 738   2                      CyPins_ClearPin(CSN_P5_4);
 739   2                      
 740   2                      SPIM_WriteTxData(0x07);
 741   2                      SPIM_WriteTxData(0x00);
 742   2                      SPIM_WriteTxData(0x00);
 743   2                      while(!(SPIM_ReadTxStatus() & SPIM_STS_TX_FIFO_EMPTY)){;}
 744   2                      
 745   2                      CyDelayUs(15);
 746   2                      
 747   2                      CyPins_SetPin(CSN_P5_4);
 748   2                      
 749   2                      CyDelayUs(20);
 750   2                      
 751   2                      CyPins_ClearPin(CSN_P5_4);
 752   2                      
 753   2                      SPIM_WriteTxData(0x09);
 754   2                      SPIM_WriteTxData(0x00);
 755   2                      SPIM_WriteTxData(0x14);
 756   2                      while(!(SPIM_ReadTxStatus() & SPIM_STS_TX_FIFO_EMPTY)){;}
 757   2                      
 758   2                      CyDelayUs(15);
 759   2                      
 760   2                      CyPins_SetPin(CSN_P5_4);
 761   2                      
 762   2                      CyDelayUs(20);
 763   2                      
 764   2                      CyPins_ClearPin(CSN_P5_4);
 765   2                      
 766   2                      SPIM_WriteTxData(0x0F);
 767   2                      SPIM_WriteTxData(0x00);
 768   2                      SPIM_WriteTxData(0x00);
 769   2                      while(!(SPIM_ReadTxStatus() & SPIM_STS_TX_FIFO_EMPTY)){;}
 770   2                      CyDelayUs(15);
 771   2                      
 772   2                      CyPins_SetPin(CSN_P5_4);
 773   2              }
 774   1              else if(val_r >= 0x30 && val_r <= 0x3F)
 775   1              {
 776   2                      val_r = val_r - 0x30;
 777   2                      temp    = 0x0001 << val_r;
 778   2                      temp1   = temp >> 0x08;
 779   2      
 780   2                      CyPins_ClearPin(CSN_P5_4);
 781   2                      
 782   2                      SPIM_WriteTxData(0x04);
 783   2                      SPIM_WriteTxData(0x00);
 784   2                      SPIM_WriteTxData(0x00);
 785   2                      while(!(SPIM_ReadTxStatus() & SPIM_STS_TX_FIFO_EMPTY)){;}
 786   2                      
 787   2                      CyDelayUs(15);
 788   2                      
 789   2                      CyPins_SetPin(CSN_P5_4);
 790   2                      
 791   2                      CyDelayUs(20);
 792   2                      
 793   2                      CyPins_ClearPin(CSN_P5_4);
 794   2                      
 795   2                      SPIM_WriteTxData(0x05);
C51 COMPILER V9.51   TASK1                                                                 07/01/2014 18:20:50 PAGE 14  

 796   2                      SPIM_WriteTxData(0x00);
 797   2                      SPIM_WriteTxData(0x00);
 798   2                      while(!(SPIM_ReadTxStatus() & SPIM_STS_TX_FIFO_EMPTY)){;}
 799   2                      
 800   2                      CyDelayUs(15);
 801   2                      
 802   2                      CyPins_SetPin(CSN_P5_4);
 803   2                      
 804   2                      CyDelayUs(20);
 805   2                      
 806   2                      CyPins_ClearPin(CSN_P5_4);
 807   2                      
 808   2                      SPIM_WriteTxData(0x06);
 809   2                      SPIM_WriteTxData(0x00);
 810   2                      SPIM_WriteTxData(0x00);
 811   2                      while(!(SPIM_ReadTxStatus() & SPIM_STS_TX_FIFO_EMPTY)){;}
 812   2                      
 813   2                      CyDelayUs(15);
 814   2                      
 815   2                      CyPins_SetPin(CSN_P5_4);
 816   2                      
 817   2                      CyDelayUs(20);
 818   2                      
 819   2                      CyPins_ClearPin(CSN_P5_4);
 820   2                      
 821   2                      SPIM_WriteTxData(0x07);
 822   2                      SPIM_WriteTxData(temp1);
 823   2                      SPIM_WriteTxData(temp);
 824   2                      while(!(SPIM_ReadTxStatus() & SPIM_STS_TX_FIFO_EMPTY)){;}
 825   2                      
 826   2                      CyDelayUs(15);
 827   2                      
 828   2                      CyPins_SetPin(CSN_P5_4);
 829   2                      
 830   2                      CyDelayUs(20);
 831   2                      
 832   2                      CyPins_ClearPin(CSN_P5_4);
 833   2                      
 834   2                      SPIM_WriteTxData(0x09);
 835   2                      SPIM_WriteTxData(0x00);
 836   2                      SPIM_WriteTxData(0x18);
 837   2                      while(!(SPIM_ReadTxStatus() & SPIM_STS_TX_FIFO_EMPTY)){;}
 838   2                      
 839   2                      CyDelayUs(15);
 840   2                      
 841   2                      CyPins_SetPin(CSN_P5_4);
 842   2                      
 843   2                      CyDelayUs(20);
 844   2                      
 845   2                      CyPins_ClearPin(CSN_P5_4);
 846   2                      
 847   2                      SPIM_WriteTxData(0x0F);
 848   2                      SPIM_WriteTxData(0x00);
 849   2                      SPIM_WriteTxData(0x00);
 850   2                      while(!(SPIM_ReadTxStatus() & SPIM_STS_TX_FIFO_EMPTY)){;}
 851   2                      
 852   2                      CyDelayUs(15);
 853   2                      
 854   2                      CyPins_SetPin(CSN_P5_4);
 855   2              }
 856   1              else
 857   1              {
C51 COMPILER V9.51   TASK1                                                                 07/01/2014 18:20:50 PAGE 15  

 858   2                      CyPins_ClearPin(CSN_P5_4);
 859   2              
 860   2                      SPIM_WriteTxData(0x04);
 861   2                      SPIM_WriteTxData(0x00);
 862   2                      SPIM_WriteTxData(0x00);
 863   2                      while(!(SPIM_ReadTxStatus() & SPIM_STS_TX_FIFO_EMPTY)){;}
 864   2                      
 865   2                      CyDelayUs(15);
 866   2                      
 867   2                      CyPins_SetPin(CSN_P5_4);
 868   2                      
 869   2                      CyDelayUs(20);
 870   2                      
 871   2                      CyPins_ClearPin(CSN_P5_4);
 872   2                      
 873   2                      SPIM_WriteTxData(0x05);
 874   2                      SPIM_WriteTxData(0x00);
 875   2                      SPIM_WriteTxData(0x00);
 876   2                      while(!(SPIM_ReadTxStatus() & SPIM_STS_TX_FIFO_EMPTY)){;}
 877   2                      
 878   2                      CyDelayUs(15);
 879   2                      
 880   2                      CyPins_SetPin(CSN_P5_4);
 881   2                      
 882   2                      CyDelayUs(20);
 883   2                      
 884   2                      CyPins_ClearPin(CSN_P5_4);
 885   2                      
 886   2                      SPIM_WriteTxData(0x06);
 887   2                      SPIM_WriteTxData(0x00);
 888   2                      SPIM_WriteTxData(0x00);
 889   2                      while(!(SPIM_ReadTxStatus() & SPIM_STS_TX_FIFO_EMPTY)){;}
 890   2                      
 891   2                      CyDelayUs(15);
 892   2                      
 893   2                      CyPins_SetPin(CSN_P5_4);
 894   2                      
 895   2                      CyDelayUs(20);
 896   2                      
 897   2                      CyPins_ClearPin(CSN_P5_4);
 898   2                      
 899   2                      SPIM_WriteTxData(0x07);
 900   2                      SPIM_WriteTxData(0x00);
 901   2                      SPIM_WriteTxData(0x00);
 902   2                      while(!(SPIM_ReadTxStatus() & SPIM_STS_TX_FIFO_EMPTY)){;}
 903   2                      
 904   2                      CyDelayUs(15);
 905   2                      
 906   2                      CyPins_SetPin(CSN_P5_4);
 907   2                      
 908   2                      CyDelayUs(20);
 909   2                      
 910   2                      CyPins_ClearPin(CSN_P5_4);
 911   2                      
 912   2                      SPIM_WriteTxData(0x09);
 913   2                      SPIM_WriteTxData(0x00);
 914   2                      SPIM_WriteTxData(0x00);
 915   2                      while(!(SPIM_ReadTxStatus() & SPIM_STS_TX_FIFO_EMPTY)){;}
 916   2                      
 917   2                      CyDelayUs(15);
 918   2                      
 919   2                      CyPins_SetPin(CSN_P5_4);
C51 COMPILER V9.51   TASK1                                                                 07/01/2014 18:20:50 PAGE 16  

 920   2                      
 921   2                      CyDelayUs(20);
 922   2                      
 923   2                      CyPins_ClearPin(CSN_P5_4);
 924   2                      
 925   2                      SPIM_WriteTxData(0x0F);
 926   2                      SPIM_WriteTxData(0x00);
 927   2                      SPIM_WriteTxData(0x00);
 928   2                      while(!(SPIM_ReadTxStatus() & SPIM_STS_TX_FIFO_EMPTY)){;}
 929   2                      CyDelayUs(15);
 930   2                      
 931   2                      CyPins_SetPin(CSN_P5_4);
 932   2              }
 933   1              CyDelay(10);
 934   1      }
 935          
 936          void switching_main(unsigned char *cmd)         // Main Relay Switching Subroutine
 937          {
 938   1              unsigned char mux_detect,rx_sword[8];
 939   1              
 940   1          UART_ClearRxBuffer();
 941   1          UART_ClearTxBuffer(); 
 942   1          
 943   1              switch(*cmd){
 944   2      
 945   2                      case 0xF1:                                                                              //      VI-CH_1
 946   2                                      
 947   2                              Relays_Init();                          //      Relays Initialise Subroutine
 948   2      
 949   2                  
 950   2                              UART_PutString("VICH1");                        //      STATUS ACKNOWLEDGEMENT to uP    //
 951   2                              while(!(UART_ReadTxStatus() & UART_TX_STS_FIFO_EMPTY)){;}
 952   2                              
 953   2      
 954   2                              break;
 955   2              
 956   2                      case 0xF2:                                                                              //      VI-CH_2
 957   2                                      
 958   2                              Relays_Init();                          //      Relays Initialise Subroutine
 959   2      
 960   2                              CyPins_SetPin(PC_VI_2SEL0_P2_5);
 961   2                  CyDelayUs(100);
 962   2                  CyPins_SetPin(PC_VI_2SEL1_P2_4);
 963   2                  
 964   2                              UART_PutString("VICH2");                        //      STATUS ACKNOWLEDGEMENT to uP    //
 965   2                              while(!(UART_ReadTxStatus() & UART_TX_STS_FIFO_EMPTY)){;}
 966   2                              
 967   2      /*                      UART_PutString("*");
 968   2                              while(!(UART_ReadTxStatus() & UART_TX_STS_FIFO_EMPTY)){;}
 969   2                                      
 970   2                              UART_PutString("*");
 971   2                              while(!(UART_ReadTxStatus() & UART_TX_STS_FIFO_EMPTY)){;}
 972   2                                      
 973   2                              UART_PutString("#");
 974   2                              while(!(UART_ReadTxStatus() & UART_TX_STS_FIFO_EMPTY)){;}*/
 975   2      
 976   2                              break;
 977   2      
 978   2                      case 0x03:                                                                              //      ICM Select
 979   2      
 980   2                              Relays_Init();                          
 981   2                  
C51 COMPILER V9.51   TASK1                                                                 07/01/2014 18:20:50 PAGE 17  

 982   2                  CyPins_SetPin(BICM_SEL_P2_2);
 983   2      
 984   2                              UART_PutString("ICMSL");                        
 985   2                              while(!(UART_ReadTxStatus() & UART_TX_STS_FIFO_EMPTY)){;}
 986   2                              
 987   2                              break;
 988   2                      case 0xFC:                                                                              //      fly channel select
 989   2      
 990   2                              //Relays_Init();                                
 991   2                  
 992   2                  CyPins_SetPin(MUXASEL_P2_1);
 993   2      
 994   2                              UART_PutString("FLYCH");                
 995   2                              while(!(UART_ReadTxStatus() & UART_TX_STS_FIFO_EMPTY)){;}
 996   2                              
 997   2                              break;            
 998   2      
 999   2                              
1000   2                      case 0x06:                                                                              //      Function Generator
1001   2                      
1002   2                              Relays_Init();                  //      Relays Initialise Subroutine
1003   2                              
1004   2                              CyPins_SetPin(BFG1_SEL_P2_3);
1005   2                              
1006   2                              UART_PutString("FGSEL");                        //      STATUS ACKNOWLEDGEMENT to uP    //
1007   2                              while(!(UART_ReadTxStatus() & UART_TX_STS_FIFO_EMPTY)){;}
1008   2                              
1009   2                      
1010   2                              break;
1011   2                              
1012   2                              
1013   2                      case 0x09:                                                                              //      Ex-MUX I/F      //
1014   2                  CyPins_SetPin(MUXSEL_B0_P3_4);
1015   2                  CyPins_SetPin(MUXSEL_B1_P3_5);
1016   2                              CyDelay(swtch_delay);                   //      PROGRAMMABLE MODULE SWITCHING DELAY [DEFAULT = 1mS]
1017   2                              
1018   2                              cmd++;
1019   2                              Test_Chnl_Switch(*cmd);
1020   2                              
1021   2                              tp1[0] = rx_word[1];
1022   2                              
1023   2                              CyDelay(swtch_delay);                   //      PROGRAMMABLE MODULE SWITCHING DELAY [DEFAULT = 1mS]
1024   2                              
1025   2                              cmd++;
1026   2                              Ref_Chnl_Switch(*cmd);
1027   2      
1028   2                              tp1[2] = rx_word[2];
1029   2                              
1030   2                              tp1[4] = tst_bank;
1031   2                              
1032   2                              tp1[6] = spi_tst_ch_tmp;
1033   2                              
1034   2                              tp1[8] = spi_tst_ch_tmp1;
1035   2                              
1036   2                              tp1[10] = ref_bank;
1037   2                              
1038   2                              tp1[12] = spi_ref_ch_tmp;
1039   2                              
1040   2                              tp1[14] = spi_ref_ch_tmp1;
1041   2      
1042   2                              CyDelay(delay);                 //      PROGRAMMABLE DELAY [DEFAULT = 10mS]
1043   2                  
C51 COMPILER V9.51   TASK1                                                                 07/01/2014 18:20:50 PAGE 18  

1044   2                              UART_PutString("S");
1045   2                              while(!(UART_ReadTxStatus() & UART_TX_STS_FIFO_EMPTY)){;}
1046   2                              
1047   2                              UART_PutString("U");
1048   2                              while(!(UART_ReadTxStatus() & UART_TX_STS_FIFO_EMPTY)){;}
1049   2                              
1050   2                              UART_PutString("C");
1051   2                              while(!(UART_ReadTxStatus() & UART_TX_STS_FIFO_EMPTY)){;}
1052   2                              
1053   2                              UART_PutString("C");
1054   2                              while(!(UART_ReadTxStatus() & UART_TX_STS_FIFO_EMPTY)){;}
1055   2                              
1056   2                              UART_PutString("E");
1057   2                              while(!(UART_ReadTxStatus() & UART_TX_STS_FIFO_EMPTY)){;}
1058   2                              
1059   2                              UART_PutString("S");
1060   2                              while(!(UART_ReadTxStatus() & UART_TX_STS_FIFO_EMPTY)){;}
1061   2                              
1062   2                              UART_PutString("S");
1063   2                              while(!(UART_ReadTxStatus() & UART_TX_STS_FIFO_EMPTY)){;}
1064   2                              
1065   2                  UART_ClearRxBuffer();
1066   2                  UART_ClearTxBuffer();  
1067   2                      
1068   2                              break;
1069   2                              
1070   2                      case 0x0A:                                                                              //      Ex-MUX Detect   //
1071   2                              
1072   2                              UART_PutString("***#");                 //      STATUS ACKNOWLEDGEMENT to uP    //
1073   2                              while(!(UART_ReadTxStatus() & UART_TX_STS_FIFO_EMPTY)){;}
1074   2                              
1075   2      //                      UART_PutString("*");
1076   2      //                      while(!(UART_ReadTxStatus() & UART_TX_STS_FIFO_EMPTY)){;}
1077   2      //                      
1078   2      //                      UART_PutString("*");
1079   2      //                      while(!(UART_ReadTxStatus() & UART_TX_STS_FIFO_EMPTY)){;}
1080   2      //                      
1081   2      //                      UART_PutString("#");
1082   2      //                      while(!(UART_ReadTxStatus() & UART_TX_STS_FIFO_EMPTY)){;}
1083   2                              
1084   2                              SPIM_ClearTxBuffer();
1085   2                              
1086   2                              CyPins_ClearPin(CSN_P5_4);      //      Manual Chip_Select LOW
1087   2                              
1088   2                              SPIM_WriteTxData(0x15);
1089   2                              SPIM_WriteTxData(0x15);
1090   2                              SPIM_WriteTxData(0x15);
1091   2      
1092   2                              while(!(SPIM_ReadTxStatus() & SPIM_STS_TX_FIFO_EMPTY))
1093   2                              {
1094   3                                      rx_sword[0] = SPIM_ReadRxData();
1095   3                              }
1096   2      
1097   2                              CyDelayUs(14);
1098   2      
1099   2                              CyPins_SetPin(CSN_P5_4);        //      Manual Chip_Select HIGH
1100   2                              
1101   2                              CyDelayUs(5);
1102   2                              
1103   2                              if(SPIM_ReadRxStatus())
1104   2                              {
1105   3                                      rx_sword[0] = SPIM_ReadRxData();
C51 COMPILER V9.51   TASK1                                                                 07/01/2014 18:20:50 PAGE 19  

1106   3                                      
1107   3                                      if(rx_sword[0] == 0x15){
1108   4                                              mux_detect = rx_sword[0];
1109   4                                      }
1110   3                                      else{
1111   4                                              mux_detect = 0x00;                      // To be changed to 0 after testing is done.
1112   4                                      }
1113   3                                      
1114   3                                      UART_WriteTxData(mux_detect);
1115   3                                      while(!(UART_ReadTxStatus() & UART_TX_STS_FIFO_EMPTY)){;}
1116   3                                      SPIM_ClearRxBuffer();
1117   3                                      mux_detect = 0x00;
1118   3                                      rx_sword[0] = 0x00;
1119   3                              }
1120   2                              
1121   2                              break;
1122   2                              
1123   2                      case 0x0B:                                                                              //      EX-MUX TEST Chnl ON     //
1124   2                      
1125   2                              cmd++;
1126   2                              
1127   2                  CyPins_SetPin(MUXSEL_B0_P3_4);
1128   2                  CyPins_SetPin(MUXSEL_B1_P3_5);
1129   2                  
1130   2                  CyDelay(swtch_delay);                       //      PROGRAMMABLE MODULE SWITCHING DELAY [DEFAULT = 1mS]
1131   2                              
1132   2                              Test_Chnl_Switch(*cmd);
1133   2      
1134   2                              UART_PutString("*");                    //      STATUS ACKNOWLEDGEMENT to uP    //
1135   2                              while(!(UART_ReadTxStatus() & UART_TX_STS_FIFO_EMPTY)){;}
1136   2                              
1137   2                              UART_PutString("*");
1138   2                              while(!(UART_ReadTxStatus() & UART_TX_STS_FIFO_EMPTY)){;}
1139   2                              
1140   2                              UART_PutString("*");
1141   2                              while(!(UART_ReadTxStatus() & UART_TX_STS_FIFO_EMPTY)){;}
1142   2                              
1143   2                              UART_PutString("#");
1144   2                              while(!(UART_ReadTxStatus() & UART_TX_STS_FIFO_EMPTY)){;}
1145   2                      
1146   2                              break;
1147   2                  
1148   2                      case 0x0C:                                                                              //      EX-MUX REF Chnl ON      //
1149   2                              
1150   2                              cmd++;
1151   2                              
1152   2                  CyPins_SetPin(MUXSEL_B0_P3_4);
1153   2                  CyPins_SetPin(MUXSEL_B1_P3_5);
1154   2                  CyDelay(swtch_delay);                       //      PROGRAMMABLE MODULE SWITCHING DELAY [DEFAULT = 1mS]
1155   2                              
1156   2                  
1157   2                              Ref_Chnl_Switch(*cmd);
1158   2      
1159   2                              UART_PutString("*");                    //      STATUS ACKNOWLEDGEMENT to uP    //
1160   2                              while(!(UART_ReadTxStatus() & UART_TX_STS_FIFO_EMPTY)){;}
1161   2                              
1162   2                              UART_PutString("*");
1163   2                              while(!(UART_ReadTxStatus() & UART_TX_STS_FIFO_EMPTY)){;}
1164   2                              
1165   2                              UART_PutString("*");
1166   2                              while(!(UART_ReadTxStatus() & UART_TX_STS_FIFO_EMPTY)){;}
1167   2                              
C51 COMPILER V9.51   TASK1                                                                 07/01/2014 18:20:50 PAGE 20  

1168   2                              UART_PutString("#");
1169   2                              while(!(UART_ReadTxStatus() & UART_TX_STS_FIFO_EMPTY)){;}
1170   2                  
1171   2                              break;
1172   2                              
1173   2                      case 0x10:                                                                              //       PWM START      //
1174   2                              
1175   2                              PWM_Start();
1176   2                              PWM_Enable();
1177   2                              
1178   2                              UART_PutString("***#");                 //      STATUS ACKNOWLEDGEMENT to uP    //
1179   2                              while(!(UART_ReadTxStatus() & UART_TX_STS_FIFO_EMPTY))
1180   2                              {
1181   3                                      ;
1182   3                              }
1183   2                              
1184   2                              break;
1185   2      
1186   2                      case 0x11:                                                                              //       PWM STOP       //
1187   2                              
1188   2                              PWM_Stop();
1189   2                              
1190   2                              UART_PutString("***#");                 //      STATUS ACKNOWLEDGEMENT to uP    //
1191   2                              while(!(UART_ReadTxStatus() & UART_TX_STS_FIFO_EMPTY))
1192   2                              {
1193   3                                      ;
1194   3                              }
1195   2                              
1196   2                              break;
1197   2                              
1198   2                                      
1199   2                      case 0x1C:                                                                              //      Interrupt Pin Configure //
1200   2                      
1201   2                              cmd++;
1202   2                              
1203   2                              if(*cmd == 0x00 || *cmd == 0x01)
1204   2                              {
1205   3                                      embd_prb_int_config = *cmd;
1206   3                                      
1207   3                                      UART_PutString("***#");                 //      STATUS ACKNOWLEDGEMENT to uP    //
1208   3                                      while(!(UART_ReadTxStatus() & UART_TX_STS_FIFO_EMPTY)){;}
1209   3                              }
1210   2                              else if(*cmd == 0x0F)
1211   2                              {
1212   3                                      /*      No Change OP    */
1213   3      
1214   3                                      UART_PutString("***#");                 //      STATUS ACKNOWLEDGEMENT to uP    //
1215   3                                      while(!(UART_ReadTxStatus() & UART_TX_STS_FIFO_EMPTY)){;}
1216   3                              }
1217   2                              else                                            //      Reset local rx_buffer on Unknown Rx Value       //
1218   2                              {
1219   3                                      for(i = 0; i <= 31; i++){
1220   4                                              rx_word[i]      = 0x00;
1221   4                                      }
1222   3                                      dat_cnt         = 0;
1223   3                                      cmd_exct        = 0;
1224   3      
1225   3                                      UART_PutString("***?");                 //      FAILURE ACKNOWLEDGEMENT to uP   //
1226   3                                      while(!(UART_ReadTxStatus() & UART_TX_STS_FIFO_EMPTY)){;}
1227   3                              }
1228   2                              
1229   2                              break;
C51 COMPILER V9.51   TASK1                                                                 07/01/2014 18:20:50 PAGE 21  

1230   2                              
1231   2                      case 0x40:                                                                              //      Debug Mode      //
1232   2                      
1233   2                              Relays_Init();                  //      Relays Initialise Subroutine    //
1234   2      
1235   2                              UART_PutString("***#");                 //      STATUS ACKNOWLEDGEMENT to uP    //
1236   2                              while(!(UART_ReadTxStatus() & UART_TX_STS_FIFO_EMPTY)){;}
1237   2                              
1238   2                              break;
1239   2                              
1240   2                      case 0x45:                                                                              //      Read Port Status        //
1241   2                      
1242   2                              UART_PutString("***#");                 //      STATUS ACKNOWLEDGEMENT to uP    //
1243   2                              while(!(UART_ReadTxStatus() & UART_TX_STS_FIFO_EMPTY)){;}
1244   2                  
1245   2                  RLY_PRT_STS=0;
1246   2                  
1247   2                      if (CyPins_ReadPin(PC_VI_2SEL0_P2_5))
1248   2                              RLY_PRT_STS = RLY_PRT_STS | 0x1;
1249   2                  else
1250   2                      RLY_PRT_STS = RLY_PRT_STS & 0xFE;
1251   2                  
1252   2                      if (CyPins_ReadPin(PC_VI_2SEL1_P2_4))
1253   2                      RLY_PRT_STS = RLY_PRT_STS | 0x2;
1254   2                  else
1255   2                      RLY_PRT_STS = RLY_PRT_STS & 0xFD;
1256   2                          
1257   2                      if (CyPins_ReadPin(BICM_SEL_P2_2))
1258   2                      RLY_PRT_STS = RLY_PRT_STS | 0x4;
1259   2                  else
1260   2                      RLY_PRT_STS = RLY_PRT_STS & 0xFB;
1261   2                          
1262   2                      if (CyPins_ReadPin(BFG1_SEL_P2_3))
1263   2                      RLY_PRT_STS = RLY_PRT_STS | 0x8;
1264   2                  else
1265   2                      RLY_PRT_STS = RLY_PRT_STS & 0xF7;
1266   2                          
1267   2                      if (CyPins_ReadPin(MUXASEL_P2_1))
1268   2                      RLY_PRT_STS = RLY_PRT_STS | 0x10;
1269   2                  else
1270   2                      RLY_PRT_STS = RLY_PRT_STS & 0xEF;
1271   2      
1272   2                
1273   2                              RLY_PRT_STS     = RLY_PRT_STS & 0x1F;
1274   2                              UART_ClearTxBuffer();
1275   2                              UART_WriteTxData(RLY_PRT_STS);
1276   2                              while(!(UART_ReadTxStatus() & UART_TX_STS_FIFO_EMPTY)){;}
1277   2                  
1278   2                              break;
1279   2                  
1280   2                      case 0x46:                                                                              //      Read SRC IMP Port Status        //
1281   2      
1282   2                              UART_PutString("***#");                 //      STATUS ACKNOWLEDGEMENT to uP    //
1283   2                              while(!(UART_ReadTxStatus() & UART_TX_STS_FIFO_EMPTY)){;}
1284   2                  
1285   2                  RLY_PRT_STS=0;
1286   2                  
1287   2                              if (CyPins_ReadPin(SRC_0_P2_6))
1288   2                              RLY_PRT_STS = RLY_PRT_STS | 0x1;
1289   2                  else
1290   2                      RLY_PRT_STS = RLY_PRT_STS & 0xFE;
1291   2      
C51 COMPILER V9.51   TASK1                                                                 07/01/2014 18:20:50 PAGE 22  

1292   2              
1293   2                  if (CyPins_ReadPin(SRC_1_P2_7))
1294   2                      RLY_PRT_STS = RLY_PRT_STS | 0x2;
1295   2                  else
1296   2                      RLY_PRT_STS = RLY_PRT_STS & 0xFD;
1297   2                         
1298   2                      if (CyPins_ReadPin(SRC_2_P12_4))
1299   2                      RLY_PRT_STS = RLY_PRT_STS | 0x4;
1300   2                  else
1301   2                      RLY_PRT_STS = RLY_PRT_STS & 0xFB;
1302   2                          
1303   2                      if (CyPins_ReadPin(SRC_3_P12_5))
1304   2                      RLY_PRT_STS = RLY_PRT_STS | 0x8;
1305   2                  else
1306   2                      RLY_PRT_STS = RLY_PRT_STS & 0xF7;
1307   2      
1308   2                  if (CyPins_ReadPin(SRC_4_P6_4))
1309   2                      RLY_PRT_STS = RLY_PRT_STS | 0x10;
1310   2                  else
1311   2                      RLY_PRT_STS = RLY_PRT_STS & 0xEF;
1312   2                  
1313   2                  if (CyPins_ReadPin(BSRC_IMP_SEL_P6_3)) 
1314   2                      RLY_PRT_STS = RLY_PRT_STS | 0x20;
1315   2                  else
1316   2                      RLY_PRT_STS = RLY_PRT_STS & 0xDF;            
1317   2                  
1318   2                      RLY_PRT_STS     = RLY_PRT_STS & 0x3F;
1319   2                              UART_ClearTxBuffer();
1320   2                              UART_WriteTxData(RLY_PRT_STS);
1321   2                              while(!(UART_ReadTxStatus() & UART_TX_STS_FIFO_EMPTY)){;}
1322   2                                              
1323   2                              break;   
1324   2                      case 0x47:                                                                              //      SRC IMP ENABLE
1325   2                      
1326   2      
1327   2                              CyPins_SetPin(BSRC_IMP_SEL_P6_3);
1328   2                  
1329   2                              UART_PutString("SRCEN");                        //      STATUS ACKNOWLEDGEMENT to uP    //
1330   2                              while(!(UART_ReadTxStatus() & UART_TX_STS_FIFO_EMPTY)){;}
1331   2                              
1332   2                      
1333   2                              break;                
1334   2                      case 0x48:                                                                              //      SRC IMP DISABLE
1335   2                  
1336   2                              CyPins_ClearPin(BSRC_IMP_SEL_P6_3);
1337   2                              
1338   2                              UART_PutString("SRCDS");                        //      STATUS ACKNOWLEDGEMENT to uP    //
1339   2                              while(!(UART_ReadTxStatus() & UART_TX_STS_FIFO_EMPTY)){;}
1340   2                              
1341   2                      
1342   2                              break;                            
1343   2                      case 0x50:                                                                              //      BAUD RATE CHANGE        //
1344   2                      
1345   2                              cmd++;
1346   2                              if(*cmd == 0x01){                       // Select 9600 BAUD Rate        //
1347   3                                      UART_Stop();
1348   3                                      U_CLOCK_SetDividerValue(156);
1349   3                                      UART_Start();
1350   3                                      
1351   3                                      UART_PutString("***#");                 //      STATUS ACKNOWLEDGEMENT to uP    //
1352   3                                      while(!(UART_ReadTxStatus() & UART_TX_STS_FIFO_EMPTY)){;}
1353   3                              }
C51 COMPILER V9.51   TASK1                                                                 07/01/2014 18:20:50 PAGE 23  

1354   2                              else if(*cmd == 0x02){          // Select 19200 BAUD Rate       //
1355   3                                      UART_Stop();
1356   3                                      U_CLOCK_SetDividerValue(78);
1357   3                                      UART_Start();
1358   3                                      
1359   3                                      UART_PutString("***#");                 //      STATUS ACKNOWLEDGEMENT to uP    //
1360   3                                      while(!(UART_ReadTxStatus() & UART_TX_STS_FIFO_EMPTY)){
1361   4                                              ;
1362   4                                      }
1363   3                              }
1364   2                              else if(*cmd == 0x03){          // Select 38400 BAUD Rate       //
1365   3                                      UART_Stop();
1366   3                                      U_CLOCK_SetDividerValue(38);
1367   3                                      UART_Start();
1368   3                                      
1369   3                                      UART_PutString("***#");                 //      STATUS ACKNOWLEDGEMENT to uP    //
1370   3                                      while(!(UART_ReadTxStatus() & UART_TX_STS_FIFO_EMPTY)){
1371   4                                              ;
1372   4                                      }
1373   3                              }
1374   2                              else if(*cmd == 0x04){          // Select 57600 BAUD Rate       //
1375   3                                      UART_Stop();
1376   3                                      U_CLOCK_SetDividerValue(26);
1377   3                                      UART_Start();
1378   3                                      
1379   3                                      UART_PutString("***#");                 //      STATUS ACKNOWLEDGEMENT to uP    //
1380   3                                      while(!(UART_ReadTxStatus() & UART_TX_STS_FIFO_EMPTY)){
1381   4                                              ;
1382   4                                      }
1383   3                              }
1384   2                              else if(*cmd == 0x05){          // Select 115200 BAUD Rate      //
1385   3                                      UART_Stop();
1386   3                                      U_CLOCK_SetDividerValue(13);
1387   3                                      UART_Start();
1388   3                                      
1389   3                                      UART_PutString("***#");                 //      STATUS ACKNOWLEDGEMENT to uP    //
1390   3                                      while(!(UART_ReadTxStatus() & UART_TX_STS_FIFO_EMPTY)){
1391   4                                              ;
1392   4                                      }
1393   3                              }
1394   2                              else if(*cmd == 0x0F){
1395   3                                      /*      No Change OP    */
1396   3                              
1397   3                                      UART_PutString("***#");                 //      STATUS ACKNOWLEDGEMENT to uP    //
1398   3                                      while(!(UART_ReadTxStatus() & UART_TX_STS_FIFO_EMPTY)){
1399   4                                              ;
1400   4                                      }
1401   3                              }
1402   2                              else{
1403   3                                      for(i = 0; i <= 31; i++){
1404   4                                              rx_word[i]      = 0x00;
1405   4                                      }
1406   3                                      dat_cnt         = 0;
1407   3                                      cmd_exct        = 0;
1408   3                                      
1409   3                                      UART_PutString("***?");                 //      FAILURE ACKNOWLEDGEMENT to uP   //
1410   3                                      while(!(UART_ReadTxStatus() & UART_TX_STS_FIFO_EMPTY)){;}
1411   3                              }
1412   2                              break;
1413   2      
1414   2                      case 0x51:                                                                              
1415   2                          CyDelayUs(500);
C51 COMPILER V9.51   TASK1                                                                 07/01/2014 18:20:50 PAGE 24  

1416   2                              cmd++;
1417   2                  
1418   2                  localCMD=*cmd;
1419   2                  if (!CyPins_ReadPin(BSRC_IMP_SEL_P6_3)){
1420   3                      switch(*cmd){
1421   4                                      UART_ClearRxBuffer();
1422   4                          UART_ClearTxBuffer();
1423   4                      case 0x00:    
1424   4                      {
1425   5                          CyPins_ClearPin(SRC_0_P2_6);
1426   5                          CyPins_ClearPin(SRC_1_P2_7);                    
1427   5                          CyPins_ClearPin(SRC_2_P12_4);
1428   5                          CyPins_ClearPin(SRC_3_P12_5);                  
1429   5                          CyPins_ClearPin(SRC_4_P6_4);      
1430   5                          
1431   5                      UART_PutString("SRC0E");                        
1432   5                                      while(!(UART_ReadTxStatus() & UART_TX_STS_FIFO_EMPTY)){;}
1433   5                      }
1434   4                      break;
1435   4                      case 0x01:
1436   4                      {                       
1437   5                          CyPins_SetPin(SRC_0_P2_6);
1438   5                          CyPins_ClearPin(SRC_1_P2_7);                    
1439   5                          CyPins_ClearPin(SRC_2_P12_4);
1440   5                          CyPins_ClearPin(SRC_3_P12_5);                  
1441   5                          CyPins_ClearPin(SRC_4_P6_4);  
1442   5                          
1443   5                      UART_PutString("SR10E");                        
1444   5                                      while(!(UART_ReadTxStatus() & UART_TX_STS_FIFO_EMPTY)){;}    
1445   5                              }
1446   4                      break;
1447   4                      case 0x02:
1448   4                      {               
1449   5                          CyPins_ClearPin(SRC_0_P2_6);
1450   5                          CyPins_SetPin(SRC_1_P2_7);                    
1451   5                          CyPins_ClearPin(SRC_2_P12_4);
1452   5                          CyPins_ClearPin(SRC_3_P12_5);                  
1453   5                          CyPins_ClearPin(SRC_4_P6_4);               
1454   5                          
1455   5                      UART_PutString("SR20E");                        
1456   5                                      while(!(UART_ReadTxStatus() & UART_TX_STS_FIFO_EMPTY)){;}       
1457   5                              }
1458   4                      break;
1459   4                      case 0x03:
1460   4                      {       
1461   5                          CyPins_SetPin(SRC_0_P2_6);
1462   5                          CyPins_SetPin(SRC_1_P2_7);                    
1463   5                          CyPins_ClearPin(SRC_2_P12_4);
1464   5                          CyPins_ClearPin(SRC_3_P12_5);                  
1465   5                          CyPins_ClearPin(SRC_4_P6_4);     
1466   5                          
1467   5                      UART_PutString("SR50E");                        
1468   5                                      while(!(UART_ReadTxStatus() & UART_TX_STS_FIFO_EMPTY)){;}                                 
1469   5                              }
1470   4                      break;
1471   4                      case 0x04:
1472   4                      {       
1473   5                          CyPins_ClearPin(SRC_0_P2_6);
1474   5                          CyPins_ClearPin(SRC_1_P2_7);                    
1475   5                          CyPins_SetPin(SRC_2_P12_4);
1476   5                          CyPins_ClearPin(SRC_3_P12_5);                  
1477   5                          CyPins_ClearPin(SRC_4_P6_4);   
C51 COMPILER V9.51   TASK1                                                                 07/01/2014 18:20:50 PAGE 25  

1478   5                          
1479   5                      UART_PutString("S100E");                        
1480   5                                      while(!(UART_ReadTxStatus() & UART_TX_STS_FIFO_EMPTY)){;}                                   
1481   5                              }
1482   4                      break;
1483   4                      case 0x05:
1484   4                      {               
1485   5                          CyPins_SetPin(SRC_0_P2_6);
1486   5                          CyPins_ClearPin(SRC_1_P2_7);                    
1487   5                          CyPins_SetPin(SRC_2_P12_4);
1488   5                          CyPins_ClearPin(SRC_3_P12_5);                  
1489   5                          CyPins_ClearPin(SRC_4_P6_4);  
1490   5                          
1491   5                      UART_PutString("S200E");                        
1492   5                                      while(!(UART_ReadTxStatus() & UART_TX_STS_FIFO_EMPTY)){;}                    
1493   5                              }
1494   4                      break;
1495   4                      case 0x06:
1496   4                      {
1497   5                          CyPins_ClearPin(SRC_0_P2_6);
1498   5                          CyPins_SetPin(SRC_1_P2_7);                    
1499   5                          CyPins_SetPin(SRC_2_P12_4);
1500   5                          CyPins_ClearPin(SRC_3_P12_5);                  
1501   5                          CyPins_ClearPin(SRC_4_P6_4);   
1502   5                          
1503   5                      UART_PutString("S500E");                        
1504   5                                      while(!(UART_ReadTxStatus() & UART_TX_STS_FIFO_EMPTY)){;}                                               
1505   5                              }
1506   4                      break;
1507   4                      case 0x07:
1508   4                      {
1509   5                          CyPins_SetPin(SRC_0_P2_6);
1510   5                          CyPins_SetPin(SRC_1_P2_7);                    
1511   5                          CyPins_SetPin(SRC_2_P12_4);
1512   5                          CyPins_ClearPin(SRC_3_P12_5);                  
1513   5                          CyPins_ClearPin(SRC_4_P6_4);                                                  
1514   5                          
1515   5                      UART_PutString("SRC1K");                        
1516   5                                      while(!(UART_ReadTxStatus() & UART_TX_STS_FIFO_EMPTY)){;}    
1517   5                              }
1518   4                      break;
1519   4                      case 0x08:
1520   4                      {
1521   5                          CyPins_ClearPin(SRC_0_P2_6);
1522   5                          CyPins_ClearPin(SRC_1_P2_7);                    
1523   5                          CyPins_ClearPin(SRC_2_P12_4);
1524   5                          CyPins_SetPin(SRC_3_P12_5);                  
1525   5                          CyPins_ClearPin(SRC_4_P6_4);  
1526   5                          
1527   5                      UART_PutString("SRC2K");                        
1528   5                                      while(!(UART_ReadTxStatus() & UART_TX_STS_FIFO_EMPTY)){;}                                               
1529   5                              } 
1530   4                      break;
1531   4                      case 0x09:
1532   4                      {
1533   5                          CyPins_SetPin(SRC_0_P2_6);
1534   5                          CyPins_ClearPin(SRC_1_P2_7);                    
1535   5                          CyPins_ClearPin(SRC_2_P12_4);
1536   5                          CyPins_SetPin(SRC_3_P12_5);                  
1537   5                          CyPins_ClearPin(SRC_4_P6_4);    
1538   5                          
1539   5                      UART_PutString("SRC5K");                        
C51 COMPILER V9.51   TASK1                                                                 07/01/2014 18:20:50 PAGE 26  

1540   5                                      while(!(UART_ReadTxStatus() & UART_TX_STS_FIFO_EMPTY)){;}                                               
1541   5                              }
1542   4                      break;
1543   4                      case 0x0A:
1544   4                      {
1545   5                          CyPins_ClearPin(SRC_0_P2_6);
1546   5                          CyPins_SetPin(SRC_1_P2_7);                    
1547   5                          CyPins_ClearPin(SRC_2_P12_4);
1548   5                          CyPins_SetPin(SRC_3_P12_5);                  
1549   5                          CyPins_ClearPin(SRC_4_P6_4);  
1550   5                          
1551   5                      UART_PutString("SR10K");                        
1552   5                                      while(!(UART_ReadTxStatus() & UART_TX_STS_FIFO_EMPTY)){;}                                               
1553   5                              }
1554   4                      break;
1555   4                      case 0x0B:
1556   4                      {
1557   5                          CyPins_SetPin(SRC_0_P2_6);
1558   5                          CyPins_SetPin(SRC_1_P2_7);                    
1559   5                          CyPins_ClearPin(SRC_2_P12_4);
1560   5                          CyPins_SetPin(SRC_3_P12_5);                  
1561   5                          CyPins_ClearPin(SRC_4_P6_4);  
1562   5                          
1563   5                      UART_PutString("SR20K");                        
1564   5                                      while(!(UART_ReadTxStatus() & UART_TX_STS_FIFO_EMPTY)){;}                                               
1565   5                              }
1566   4                      break;
1567   4                      case 0x0C:
1568   4                      {
1569   5                          CyPins_ClearPin(SRC_0_P2_6);
1570   5                          CyPins_ClearPin(SRC_1_P2_7);                    
1571   5                          CyPins_SetPin(SRC_2_P12_4);
1572   5                          CyPins_SetPin(SRC_3_P12_5);                  
1573   5                          CyPins_ClearPin(SRC_4_P6_4);  
1574   5                          
1575   5                      UART_PutString("SR50K");                        
1576   5                                      while(!(UART_ReadTxStatus() & UART_TX_STS_FIFO_EMPTY)){;}                                               
1577   5                              }
1578   4                      break;
1579   4                      case 0x0D:
1580   4                      {
1581   5                          CyPins_SetPin(SRC_0_P2_6);
1582   5                          CyPins_ClearPin(SRC_1_P2_7);                    
1583   5                          CyPins_SetPin(SRC_2_P12_4);
1584   5                          CyPins_SetPin(SRC_3_P12_5);                  
1585   5                          CyPins_ClearPin(SRC_4_P6_4);   
1586   5                          
1587   5                      UART_PutString("S100K");                        
1588   5                                      while(!(UART_ReadTxStatus() & UART_TX_STS_FIFO_EMPTY)){;}                                               
1589   5                              }
1590   4                      break;
1591   4                      case 0x0E:
1592   4                      {
1593   5                          CyPins_ClearPin(SRC_0_P2_6);
1594   5                          CyPins_SetPin(SRC_1_P2_7);                    
1595   5                          CyPins_SetPin(SRC_2_P12_4);
1596   5                          CyPins_SetPin(SRC_3_P12_5);                  
1597   5                          CyPins_ClearPin(SRC_4_P6_4);   
1598   5                          
1599   5                      UART_PutString("S200K");                        
1600   5                                      while(!(UART_ReadTxStatus() & UART_TX_STS_FIFO_EMPTY)){;}                                               
1601   5                              } 
C51 COMPILER V9.51   TASK1                                                                 07/01/2014 18:20:50 PAGE 27  

1602   4                      break;
1603   4                      case 0x0F:
1604   4                      {
1605   5                          CyPins_SetPin(SRC_0_P2_6);
1606   5                          CyPins_SetPin(SRC_1_P2_7);                    
1607   5                          CyPins_SetPin(SRC_2_P12_4);
1608   5                          CyPins_SetPin(SRC_3_P12_5);                  
1609   5                          CyPins_ClearPin(SRC_4_P6_4);  
1610   5                          
1611   5                      UART_PutString("S500K");                        
1612   5                                      while(!(UART_ReadTxStatus() & UART_TX_STS_FIFO_EMPTY)){;}                                               
1613   5                              }  
1614   4                      break;
1615   4                      case 0x10:
1616   4                      {
1617   5                          CyPins_ClearPin(SRC_0_P2_6);
1618   5                          CyPins_ClearPin(SRC_1_P2_7);                    
1619   5                          CyPins_ClearPin(SRC_2_P12_4);
1620   5                          CyPins_ClearPin(SRC_3_P12_5);                  
1621   5                          CyPins_SetPin(SRC_4_P6_4);  
1622   5                          
1623   5                      UART_PutString("SRC1M");                        
1624   5                                      while(!(UART_ReadTxStatus() & UART_TX_STS_FIFO_EMPTY)){;}                                               
1625   5                              } 
1626   4                      break;
1627   4                      case 0x11:
1628   4                      {
1629   5                          CyPins_SetPin(SRC_0_P2_6);
1630   5                          CyPins_ClearPin(SRC_1_P2_7);                    
1631   5                          CyPins_ClearPin(SRC_2_P12_4);
1632   5                          CyPins_ClearPin(SRC_3_P12_5);                  
1633   5                          CyPins_SetPin(SRC_4_P6_4);
1634   5                            
1635   5                          
1636   5                      UART_PutString("SREX1");                        
1637   5                                      while(!(UART_ReadTxStatus() & UART_TX_STS_FIFO_EMPTY)){;}    
1638   5                              }      
1639   4                      break;
1640   4                      case 0x12:
1641   4                      {
1642   5                          CyPins_ClearPin(SRC_0_P2_6);
1643   5                          CyPins_SetPin(SRC_1_P2_7);                    
1644   5                          CyPins_ClearPin(SRC_2_P12_4);
1645   5                          CyPins_ClearPin(SRC_3_P12_5);                  
1646   5                          CyPins_SetPin(SRC_4_P6_4);   
1647   5                          
1648   5                      UART_PutString("SREX2");                        
1649   5                                      while(!(UART_ReadTxStatus() & UART_TX_STS_FIFO_EMPTY)){;}                                               
1650   5                              }
1651   4                      break;
1652   4                      case 0x13:
1653   4                      {
1654   5                          CyPins_SetPin(SRC_0_P2_6);
1655   5                          CyPins_SetPin(SRC_1_P2_7);                    
1656   5                          CyPins_ClearPin(SRC_2_P12_4);
1657   5                          CyPins_ClearPin(SRC_3_P12_5);                  
1658   5                          CyPins_SetPin(SRC_4_P6_4);  
1659   5                          
1660   5                      UART_PutString("SREX3");                        
1661   5                                      while(!(UART_ReadTxStatus() & UART_TX_STS_FIFO_EMPTY)){;}                                               
1662   5                              }
1663   4                      break;
C51 COMPILER V9.51   TASK1                                                                 07/01/2014 18:20:50 PAGE 28  

1664   4                      case 0x14:
1665   4                      {
1666   5                          CyPins_ClearPin(SRC_0_P2_6);
1667   5                          CyPins_ClearPin(SRC_1_P2_7);                    
1668   5                          CyPins_SetPin(SRC_2_P12_4);
1669   5                          CyPins_ClearPin(SRC_3_P12_5);                  
1670   5                          CyPins_SetPin(SRC_4_P6_4);  
1671   5                          
1672   5                      UART_PutString("SREX4");                        
1673   5                                      while(!(UART_ReadTxStatus() & UART_TX_STS_FIFO_EMPTY)){;}                                               
1674   5                              }
1675   4                      break;
1676   4                      case 0x15:
1677   4                      {
1678   5                          CyPins_SetPin(SRC_0_P2_6);
1679   5                          CyPins_ClearPin(SRC_1_P2_7);                    
1680   5                          CyPins_SetPin(SRC_2_P12_4);
1681   5                          CyPins_ClearPin(SRC_3_P12_5);                  
1682   5                          CyPins_SetPin(SRC_4_P6_4);   
1683   5                          
1684   5                      UART_PutString("SREX5");                        
1685   5                                      while(!(UART_ReadTxStatus() & UART_TX_STS_FIFO_EMPTY)){;}                                               
1686   5                              }
1687   4                      break;
1688   4                      case 0x16:
1689   4                      {
1690   5                          CyPins_ClearPin(SRC_0_P2_6);
1691   5                          CyPins_SetPin(SRC_1_P2_7);                    
1692   5                          CyPins_SetPin(SRC_2_P12_4);
1693   5                          CyPins_ClearPin(SRC_3_P12_5);                  
1694   5                          CyPins_SetPin(SRC_4_P6_4);   
1695   5                          
1696   5                      UART_PutString("SREX6");                        
1697   5                                      while(!(UART_ReadTxStatus() & UART_TX_STS_FIFO_EMPTY)){;}                                               
1698   5                              }
1699   4                      break;
1700   4                      case 0x17:
1701   4                      {
1702   5                          CyPins_SetPin(SRC_0_P2_6);
1703   5                          CyPins_SetPin(SRC_1_P2_7);                    
1704   5                          CyPins_SetPin(SRC_2_P12_4);
1705   5                          CyPins_ClearPin(SRC_3_P12_5);                  
1706   5                          CyPins_SetPin(SRC_4_P6_4);  
1707   5                          
1708   5                      UART_PutString("SREX7");                        
1709   5                                      while(!(UART_ReadTxStatus() & UART_TX_STS_FIFO_EMPTY)){;}                                               
1710   5                              }
1711   4                      break;
1712   4                    }
1713   3                 }
1714   2                  else{
1715   3                      for(i = 0; i <= 31; i++){
1716   4                                      rx_word[i]      = 0x00;
1717   4                              }
1718   3                      CyDelay(1);
1719   3                              dat_cnt         = 0;
1720   3                              cmd_exct        = 0;
1721   3                              
1722   3                      UART_PutString("FAIL");                 
1723   3                              while(!(UART_ReadTxStatus() & UART_TX_STS_FIFO_EMPTY)){;}
1724   3                  }
1725   2                              break;            
C51 COMPILER V9.51   TASK1                                                                 07/01/2014 18:20:50 PAGE 29  

1726   2                  
1727   2                  
1728   2                      case 0xFF:                                                                      //      SOFTWARE RESET
1729   2                      
1730   2                              cmd++;
1731   2                              if(*cmd == 0xFF){                                               
1732   3                                      CySoftwareReset();                                      //      SOFTWARE RESET COMMAND
1733   3                              }
1734   2                              else if(*cmd == 0x0F){
1735   3                                      /*      No Change OP    */
1736   3                                      
1737   3                                      UART_PutString("***#");                 //      STATUS ACKNOWLEDGEMENT to uP    //
1738   3                                      while(!(UART_ReadTxStatus() & UART_TX_STS_FIFO_EMPTY)){;}
1739   3                              }
1740   2                              else{
1741   3                                      for(i = 0; i <= 31; i++){
1742   4                                              rx_word[i]      = 0x00;
1743   4                                      }
1744   3                                      dat_cnt         = 0;
1745   3                                      cmd_exct        = 0;
1746   3                                      
1747   3                                      UART_PutString("***?");                 //      FAILURE ACKNOWLEDGEMENT to uP   //
1748   3                                      while(!(UART_ReadTxStatus() & UART_TX_STS_FIFO_EMPTY)){;}
1749   3                              }
1750   2                              break;
1751   2                      }
1752   1      }
1753          
1754          void TASK_1 ()                                                          //      INITIALISATION FUNCTION OF TASK1
1755          {
1756   1              os_create_task(1);                                              //      CREATION OF TASK1
1757   1      }
1758          
1759          /* [] END OF FILE */
*** WARNING C316 IN LINE 1759 OF .\TASK1.c: unterminated conditionals
C51 COMPILER V9.51   TASK1                                                                 07/01/2014 18:20:50 PAGE 30  

ASSEMBLY LISTING OF GENERATED OBJECT CODE


             ; FUNCTION task1 (BEGIN)
                                           ; SOURCE LINE # 26
                                           ; SOURCE LINE # 28
0000 900000      R     MOV     DPTR,#p
0003 E4                CLR     A
0004 F0                MOVX    @DPTR,A
                                           ; SOURCE LINE # 29
0005         ?C0001:
                                           ; SOURCE LINE # 30
                                           ; SOURCE LINE # 31
0005 7F01              MOV     R7,#01H
0007 120000      E     LCALL   _os_wait1
                                           ; SOURCE LINE # 33
000A 900000      R     MOV     DPTR,#prnt_en
000D E0                MOVX    A,@DPTR
000E FF                MOV     R7,A
000F EF                MOV     A,R7
0010 607E              JZ      ?C0003
                                           ; SOURCE LINE # 34
                                           ; SOURCE LINE # 35
0012 900000      R     MOV     DPTR,#i
0015 E0                MOVX    A,@DPTR
0016 FF                MOV     R7,A
0017 EF                MOV     A,R7
0018 14                DEC     A
0019 FF                MOV     R7,A
001A 900000      R     MOV     DPTR,#p
001D EF                MOV     A,R7
001E F0                MOVX    @DPTR,A
                                           ; SOURCE LINE # 36
001F 900000      R     MOV     DPTR,#i
0022 E0                MOVX    A,@DPTR
0023 FF                MOV     R7,A
0024 EF                MOV     A,R7
0025 701A              JNZ     ?C0004
                                           ; SOURCE LINE # 37
                                           ; SOURCE LINE # 38
0027 7BFF              MOV     R3,#0FFH
0029 7A00        R     MOV     R2,#HIGH ?SC_0
002B 7900        R     MOV     R1,#LOW ?SC_0
002D 120000      E     LCALL   _UART_PutString
0030         ?C0005:
                                           ; SOURCE LINE # 39
0030 120000      E     LCALL   UART_ReadTxStatus
0033 EF                MOV     A,R7
0034 30E1F9            JNB     ACC.1,?C0005
                                           ; SOURCE LINE # 40
                                           ; SOURCE LINE # 42
0037         ?C0006:
                                           ; SOURCE LINE # 44
0037 900000      E     MOV     DPTR,#rx_word+01H
003A E0                MOVX    A,@DPTR
003B FF                MOV     R7,A
003C 120000      E     LCALL   _UART_WriteTxData
                                           ; SOURCE LINE # 45
003F 8047              SJMP    ?C0007
0041         ?C0004:
                                           ; SOURCE LINE # 47
                                           ; SOURCE LINE # 48
C51 COMPILER V9.51   TASK1                                                                 07/01/2014 18:20:50 PAGE 31  

0041 7BFF              MOV     R3,#0FFH
0043 7A00        R     MOV     R2,#HIGH ?SC_0
0045 7900        R     MOV     R1,#LOW ?SC_0
0047 120000      E     LCALL   _UART_PutString
004A         ?C0008:
                                           ; SOURCE LINE # 49
004A 120000      E     LCALL   UART_ReadTxStatus
004D EF                MOV     A,R7
004E 30E1F9            JNB     ACC.1,?C0008
                                           ; SOURCE LINE # 50
                                           ; SOURCE LINE # 52
0051         ?C0009:
                                           ; SOURCE LINE # 53
0051 900000      R     MOV     DPTR,#k
0054 E4                CLR     A
0055 F0                MOVX    @DPTR,A
0056         ?C0010:
0056 900000      R     MOV     DPTR,#p
0059 E0                MOVX    A,@DPTR
005A FF                MOV     R7,A
005B 900000      R     MOV     DPTR,#k
005E E0                MOVX    A,@DPTR
005F FE                MOV     R6,A
0060 EE                MOV     A,R6
0061 D3                SETB    C
0062 9F                SUBB    A,R7
0063 5023              JNC     ?C0007
                                           ; SOURCE LINE # 54
                                           ; SOURCE LINE # 55
0065 900000      R     MOV     DPTR,#k
0068 E0                MOVX    A,@DPTR
0069 FF                MOV     R7,A
006A 7400        E     MOV     A,#LOW rx_word
006C 2F                ADD     A,R7
006D F582              MOV     DPL,A
006F E4                CLR     A
0070 3400        E     ADDC    A,#HIGH rx_word
0072 F583              MOV     DPH,A
0074 E0                MOVX    A,@DPTR
0075 FF                MOV     R7,A
0076 120000      E     LCALL   _UART_WriteTxData
0079         ?C0013:
                                           ; SOURCE LINE # 56
0079 120000      E     LCALL   UART_ReadTxStatus
007C EF                MOV     A,R7
007D 30E1F9            JNB     ACC.1,?C0013
                                           ; SOURCE LINE # 57
                                           ; SOURCE LINE # 59
0080         ?C0014:
                                           ; SOURCE LINE # 60
0080         ?C0012:
0080 900000      R     MOV     DPTR,#k
0083 E0                MOVX    A,@DPTR
0084 04                INC     A
0085 F0                MOVX    @DPTR,A
0086 80CE              SJMP    ?C0010
                                           ; SOURCE LINE # 61
0088         ?C0007:
                                           ; SOURCE LINE # 62
0088 900000      R     MOV     DPTR,#prnt_en
008B E4                CLR     A
008C F0                MOVX    @DPTR,A
C51 COMPILER V9.51   TASK1                                                                 07/01/2014 18:20:50 PAGE 32  

                                           ; SOURCE LINE # 63
008D 020000      R     LJMP    ?C0001
0090         ?C0003:
                                           ; SOURCE LINE # 65
                                           ; SOURCE LINE # 66
0090 7B01              MOV     R3,#01H
0092 7A00        E     MOV     R2,#HIGH switch_cmd
0094 7900        E     MOV     R1,#LOW switch_cmd
0096 120000      R     LCALL   _switching_main
                                           ; SOURCE LINE # 67
                                           ; SOURCE LINE # 68
0099 020000      R     LJMP    ?C0001
009C 22                RET     
             ; FUNCTION task1 (END)

             ; FUNCTION SRCIMP_Init (BEGIN)
                                           ; SOURCE LINE # 70
                                           ; SOURCE LINE # 71
0000 905016            MOV     DPTR,#05016H
0003 E0                MOVX    A,@DPTR
0004 FF                MOV     R7,A
0005 EF                MOV     A,R7
0006 30E40B            JNB     ACC.4,?C0017
                                           ; SOURCE LINE # 72
0009 905016            MOV     DPTR,#05016H
000C E0                MOVX    A,@DPTR
000D FF                MOV     R7,A
000E EF                MOV     A,R7
000F 54FE              ANL     A,#0FEH
0011 FF                MOV     R7,A
0012 EF                MOV     A,R7
0013 F0                MOVX    @DPTR,A
0014         ?C0017:
                                           ; SOURCE LINE # 74
0014 905017            MOV     DPTR,#05017H
0017 E0                MOVX    A,@DPTR
0018 FF                MOV     R7,A
0019 EF                MOV     A,R7
001A 30E40B            JNB     ACC.4,?C0018
                                           ; SOURCE LINE # 75
001D 905017            MOV     DPTR,#05017H
0020 E0                MOVX    A,@DPTR
0021 FF                MOV     R7,A
0022 EF                MOV     A,R7
0023 54FE              ANL     A,#0FEH
0025 FF                MOV     R7,A
0026 EF                MOV     A,R7
0027 F0                MOVX    @DPTR,A
0028         ?C0018:
                                           ; SOURCE LINE # 77
0028 905064            MOV     DPTR,#05064H
002B E0                MOVX    A,@DPTR
002C FF                MOV     R7,A
002D EF                MOV     A,R7
002E 30E40B            JNB     ACC.4,?C0019
                                           ; SOURCE LINE # 78
0031 905064            MOV     DPTR,#05064H
0034 E0                MOVX    A,@DPTR
0035 FF                MOV     R7,A
0036 EF                MOV     A,R7
0037 54FE              ANL     A,#0FEH
0039 FF                MOV     R7,A
C51 COMPILER V9.51   TASK1                                                                 07/01/2014 18:20:50 PAGE 33  

003A EF                MOV     A,R7
003B F0                MOVX    @DPTR,A
003C         ?C0019:
                                           ; SOURCE LINE # 80
003C 905065            MOV     DPTR,#05065H
003F E0                MOVX    A,@DPTR
0040 FF                MOV     R7,A
0041 EF                MOV     A,R7
0042 30E40B            JNB     ACC.4,?C0020
                                           ; SOURCE LINE # 81
0045 905065            MOV     DPTR,#05065H
0048 E0                MOVX    A,@DPTR
0049 FF                MOV     R7,A
004A EF                MOV     A,R7
004B 54FE              ANL     A,#0FEH
004D FF                MOV     R7,A
004E EF                MOV     A,R7
004F F0                MOVX    @DPTR,A
0050         ?C0020:
                                           ; SOURCE LINE # 83
0050 905034            MOV     DPTR,#05034H
0053 E0                MOVX    A,@DPTR
0054 FF                MOV     R7,A
0055 EF                MOV     A,R7
0056 30E40B            JNB     ACC.4,?C0022
                                           ; SOURCE LINE # 84
0059 905034            MOV     DPTR,#05034H
005C E0                MOVX    A,@DPTR
005D FF                MOV     R7,A
005E EF                MOV     A,R7
005F 54FE              ANL     A,#0FEH
0061 FF                MOV     R7,A
0062 EF                MOV     A,R7
0063 F0                MOVX    @DPTR,A
                                           ; SOURCE LINE # 85
0064         ?C0022:
0064 22                RET     
             ; FUNCTION SRCIMP_Init (END)

             ; FUNCTION Relays_Init (BEGIN)
                                           ; SOURCE LINE # 86
                                           ; SOURCE LINE # 87
                                           ; SOURCE LINE # 88
0000 905015            MOV     DPTR,#05015H
0003 E0                MOVX    A,@DPTR
0004 FF                MOV     R7,A
0005 EF                MOV     A,R7
0006 30E40B            JNB     ACC.4,?C0023
                                           ; SOURCE LINE # 89
0009 905015            MOV     DPTR,#05015H
000C E0                MOVX    A,@DPTR
000D FF                MOV     R7,A
000E EF                MOV     A,R7
000F 54FE              ANL     A,#0FEH
0011 FF                MOV     R7,A
0012 EF                MOV     A,R7
0013 F0                MOVX    @DPTR,A
0014         ?C0023:
                                           ; SOURCE LINE # 91
0014 905014            MOV     DPTR,#05014H
0017 E0                MOVX    A,@DPTR
0018 FF                MOV     R7,A
C51 COMPILER V9.51   TASK1                                                                 07/01/2014 18:20:50 PAGE 34  

0019 EF                MOV     A,R7
001A 30E40B            JNB     ACC.4,?C0024
                                           ; SOURCE LINE # 92
001D 905014            MOV     DPTR,#05014H
0020 E0                MOVX    A,@DPTR
0021 FF                MOV     R7,A
0022 EF                MOV     A,R7
0023 54FE              ANL     A,#0FEH
0025 FF                MOV     R7,A
0026 EF                MOV     A,R7
0027 F0                MOVX    @DPTR,A
0028         ?C0024:
                                           ; SOURCE LINE # 94
0028 905012            MOV     DPTR,#05012H
002B E0                MOVX    A,@DPTR
002C FF                MOV     R7,A
002D EF                MOV     A,R7
002E 30E40B            JNB     ACC.4,?C0025
                                           ; SOURCE LINE # 95
0031 905012            MOV     DPTR,#05012H
0034 E0                MOVX    A,@DPTR
0035 FF                MOV     R7,A
0036 EF                MOV     A,R7
0037 54FE              ANL     A,#0FEH
0039 FF                MOV     R7,A
003A EF                MOV     A,R7
003B F0                MOVX    @DPTR,A
003C         ?C0025:
                                           ; SOURCE LINE # 97
003C 905013            MOV     DPTR,#05013H
003F E0                MOVX    A,@DPTR
0040 FF                MOV     R7,A
0041 EF                MOV     A,R7
0042 30E40B            JNB     ACC.4,?C0026
                                           ; SOURCE LINE # 98
0045 905013            MOV     DPTR,#05013H
0048 E0                MOVX    A,@DPTR
0049 FF                MOV     R7,A
004A EF                MOV     A,R7
004B 54FE              ANL     A,#0FEH
004D FF                MOV     R7,A
004E EF                MOV     A,R7
004F F0                MOVX    @DPTR,A
0050         ?C0026:
                                           ; SOURCE LINE # 100
0050 905011            MOV     DPTR,#05011H
0053 E0                MOVX    A,@DPTR
0054 FF                MOV     R7,A
0055 EF                MOV     A,R7
0056 30E40B            JNB     ACC.4,?C0028
                                           ; SOURCE LINE # 101
0059 905011            MOV     DPTR,#05011H
005C E0                MOVX    A,@DPTR
005D FF                MOV     R7,A
005E EF                MOV     A,R7
005F 54FE              ANL     A,#0FEH
0061 FF                MOV     R7,A
0062 EF                MOV     A,R7
0063 F0                MOVX    @DPTR,A
                                           ; SOURCE LINE # 105
0064         ?C0028:
0064 22                RET     
C51 COMPILER V9.51   TASK1                                                                 07/01/2014 18:20:50 PAGE 35  

             ; FUNCTION Relays_Init (END)

             ; FUNCTION k1_k2_check (BEGIN)
                                           ; SOURCE LINE # 107
                                           ; SOURCE LINE # 108
                                           ; SOURCE LINE # 109
0000 905003            MOV     DPTR,#05003H
0003 E0                MOVX    A,@DPTR
0004 FF                MOV     R7,A
0005 EF                MOV     A,R7
0006 5410              ANL     A,#010H
0008 FF                MOV     R7,A
0009 900000      R     MOV     DPTR,#ucKey1Read
000C EF                MOV     A,R7
000D F0                MOVX    @DPTR,A
                                           ; SOURCE LINE # 110
000E 905021            MOV     DPTR,#05021H
0011 E0                MOVX    A,@DPTR
0012 FF                MOV     R7,A
0013 EF                MOV     A,R7
0014 5410              ANL     A,#010H
0016 FF                MOV     R7,A
0017 900000      R     MOV     DPTR,#ucKey2Read
001A EF                MOV     A,R7
001B F0                MOVX    @DPTR,A
                                           ; SOURCE LINE # 111
001C 22                RET     
             ; FUNCTION k1_k2_check (END)

             ; FUNCTION _Test_Chnl_Switch (BEGIN)
                                           ; SOURCE LINE # 114
0000 900000      R     MOV     DPTR,#val_t
0003 EE                MOV     A,R6
0004 F0                MOVX    @DPTR,A
0005 A3                INC     DPTR
0006 EF                MOV     A,R7
0007 F0                MOVX    @DPTR,A
                                           ; SOURCE LINE # 115
                                           ; SOURCE LINE # 116
0008 900000      R     MOV     DPTR,#temp
000B E4                CLR     A
000C F0                MOVX    @DPTR,A
000D A3                INC     DPTR
000E E4                CLR     A
000F F0                MOVX    @DPTR,A
                                           ; SOURCE LINE # 119
0010 900000      R     MOV     DPTR,#val_t
0013 E0                MOVX    A,@DPTR
0014 FE                MOV     R6,A
0015 A3                INC     DPTR
0016 E0                MOVX    A,@DPTR
0017 FF                MOV     R7,A
0018 D3                SETB    C
0019 EF                MOV     A,R7
001A 940F              SUBB    A,#0FH
001C EE                MOV     A,R6
001D 6480              XRL     A,#080H
001F 9480              SUBB    A,#080H
0021 4003              JC      $ + 5H
0023 020000      R     LJMP    ?C0030
                                           ; SOURCE LINE # 120
                                           ; SOURCE LINE # 121
C51 COMPILER V9.51   TASK1                                                                 07/01/2014 18:20:50 PAGE 36  

0026 900000      R     MOV     DPTR,#val_t
0029 E0                MOVX    A,@DPTR
002A FE                MOV     R6,A
002B A3                INC     DPTR
002C E0                MOVX    A,@DPTR
002D FF                MOV     R7,A
002E 7401              MOV     A,#01H
0030 7E00              MOV     R6,#00H
0032 A807              MOV     R0,AR7
0034 08                INC     R0
0035 8005              SJMP    ?C0415
0037         ?C0414:
0037 C3                CLR     C
0038 33                RLC     A
0039 CE                XCH     A,R6
003A 33                RLC     A
003B CE                XCH     A,R6
003C         ?C0415:
003C D8F9              DJNZ    R0,?C0414
003E FF                MOV     R7,A
003F 900000      R     MOV     DPTR,#temp
0042 EE                MOV     A,R6
0043 F0                MOVX    @DPTR,A
0044 A3                INC     DPTR
0045 EF                MOV     A,R7
0046 F0                MOVX    @DPTR,A
                                           ; SOURCE LINE # 122
0047 900000      R     MOV     DPTR,#temp
004A E0                MOVX    A,@DPTR
004B FE                MOV     R6,A
004C A3                INC     DPTR
004D E0                MOVX    A,@DPTR
004E FF                MOV     R7,A
004F EE                MOV     A,R6
0050 FF                MOV     R7,A
0051 7E00              MOV     R6,#00H
0053 900000      R     MOV     DPTR,#temp1
0056 EF                MOV     A,R7
0057 F0                MOVX    @DPTR,A
                                           ; SOURCE LINE # 124
0058 90502C            MOV     DPTR,#0502CH
005B E0                MOVX    A,@DPTR
005C FF                MOV     R7,A
005D EF                MOV     A,R7
005E 54FE              ANL     A,#0FEH
0060 FF                MOV     R7,A
0061 EF                MOV     A,R7
0062 F0                MOVX    @DPTR,A
                                           ; SOURCE LINE # 126
0063 7F00              MOV     R7,#00H
0065 120000      E     LCALL   _SPIM_WriteTxData
                                           ; SOURCE LINE # 127
0068 900000      R     MOV     DPTR,#temp1
006B E0                MOVX    A,@DPTR
006C FF                MOV     R7,A
006D 120000      E     LCALL   _SPIM_WriteTxData
                                           ; SOURCE LINE # 128
0070 900000      R     MOV     DPTR,#temp
0073 E0                MOVX    A,@DPTR
0074 FE                MOV     R6,A
0075 A3                INC     DPTR
0076 E0                MOVX    A,@DPTR
C51 COMPILER V9.51   TASK1                                                                 07/01/2014 18:20:50 PAGE 37  

0077 FF                MOV     R7,A
0078 120000      E     LCALL   _SPIM_WriteTxData
007B         ?C0031:
                                           ; SOURCE LINE # 129
007B 120000      E     LCALL   SPIM_ReadTxStatus
007E EF                MOV     A,R7
007F 30E1F9            JNB     ACC.1,?C0031
0082         ?C0032:
                                           ; SOURCE LINE # 131
0082 7F0F              MOV     R7,#0FH
0084 7E00              MOV     R6,#00H
0086 120000      E     LCALL   _CyDelayUs
                                           ; SOURCE LINE # 133
0089 90502C            MOV     DPTR,#0502CH
008C E0                MOVX    A,@DPTR
008D FF                MOV     R7,A
008E EF                MOV     A,R7
008F 4401              ORL     A,#01H
0091 FF                MOV     R7,A
0092 EF                MOV     A,R7
0093 F0                MOVX    @DPTR,A
                                           ; SOURCE LINE # 135
0094 7F14              MOV     R7,#014H
0096 7E00              MOV     R6,#00H
0098 120000      E     LCALL   _CyDelayUs
                                           ; SOURCE LINE # 137
009B 90502C            MOV     DPTR,#0502CH
009E E0                MOVX    A,@DPTR
009F FF                MOV     R7,A
00A0 EF                MOV     A,R7
00A1 54FE              ANL     A,#0FEH
00A3 FF                MOV     R7,A
00A4 EF                MOV     A,R7
00A5 F0                MOVX    @DPTR,A
                                           ; SOURCE LINE # 139
00A6 7F01              MOV     R7,#01H
00A8 120000      E     LCALL   _SPIM_WriteTxData
                                           ; SOURCE LINE # 140
00AB 7F00              MOV     R7,#00H
00AD 120000      E     LCALL   _SPIM_WriteTxData
                                           ; SOURCE LINE # 141
00B0 7F00              MOV     R7,#00H
00B2 120000      E     LCALL   _SPIM_WriteTxData
00B5         ?C0033:
                                           ; SOURCE LINE # 142
00B5 120000      E     LCALL   SPIM_ReadTxStatus
00B8 EF                MOV     A,R7
00B9 30E1F9            JNB     ACC.1,?C0033
00BC         ?C0034:
                                           ; SOURCE LINE # 144
00BC 7F0F              MOV     R7,#0FH
00BE 7E00              MOV     R6,#00H
00C0 120000      E     LCALL   _CyDelayUs
                                           ; SOURCE LINE # 146
00C3 90502C            MOV     DPTR,#0502CH
00C6 E0                MOVX    A,@DPTR
00C7 FF                MOV     R7,A
00C8 EF                MOV     A,R7
00C9 4401              ORL     A,#01H
00CB FF                MOV     R7,A
00CC EF                MOV     A,R7
00CD F0                MOVX    @DPTR,A
C51 COMPILER V9.51   TASK1                                                                 07/01/2014 18:20:50 PAGE 38  

                                           ; SOURCE LINE # 148
00CE 7F14              MOV     R7,#014H
00D0 7E00              MOV     R6,#00H
00D2 120000      E     LCALL   _CyDelayUs
                                           ; SOURCE LINE # 150
00D5 90502C            MOV     DPTR,#0502CH
00D8 E0                MOVX    A,@DPTR
00D9 FF                MOV     R7,A
00DA EF                MOV     A,R7
00DB 54FE              ANL     A,#0FEH
00DD FF                MOV     R7,A
00DE EF                MOV     A,R7
00DF F0                MOVX    @DPTR,A
                                           ; SOURCE LINE # 152
00E0 7F02              MOV     R7,#02H
00E2 120000      E     LCALL   _SPIM_WriteTxData
                                           ; SOURCE LINE # 153
00E5 7F00              MOV     R7,#00H
00E7 120000      E     LCALL   _SPIM_WriteTxData
                                           ; SOURCE LINE # 154
00EA 7F00              MOV     R7,#00H
00EC 120000      E     LCALL   _SPIM_WriteTxData
00EF         ?C0035:
                                           ; SOURCE LINE # 155
00EF 120000      E     LCALL   SPIM_ReadTxStatus
00F2 EF                MOV     A,R7
00F3 30E1F9            JNB     ACC.1,?C0035
00F6         ?C0036:
                                           ; SOURCE LINE # 157
00F6 7F0F              MOV     R7,#0FH
00F8 7E00              MOV     R6,#00H
00FA 120000      E     LCALL   _CyDelayUs
                                           ; SOURCE LINE # 159
00FD 90502C            MOV     DPTR,#0502CH
0100 E0                MOVX    A,@DPTR
0101 FF                MOV     R7,A
0102 EF                MOV     A,R7
0103 4401              ORL     A,#01H
0105 FF                MOV     R7,A
0106 EF                MOV     A,R7
0107 F0                MOVX    @DPTR,A
                                           ; SOURCE LINE # 161
0108 7F14              MOV     R7,#014H
010A 7E00              MOV     R6,#00H
010C 120000      E     LCALL   _CyDelayUs
                                           ; SOURCE LINE # 163
010F 90502C            MOV     DPTR,#0502CH
0112 E0                MOVX    A,@DPTR
0113 FF                MOV     R7,A
0114 EF                MOV     A,R7
0115 54FE              ANL     A,#0FEH
0117 FF                MOV     R7,A
0118 EF                MOV     A,R7
0119 F0                MOVX    @DPTR,A
                                           ; SOURCE LINE # 165
011A 7F03              MOV     R7,#03H
011C 120000      E     LCALL   _SPIM_WriteTxData
                                           ; SOURCE LINE # 166
011F 7F00              MOV     R7,#00H
0121 120000      E     LCALL   _SPIM_WriteTxData
                                           ; SOURCE LINE # 167
0124 7F00              MOV     R7,#00H
C51 COMPILER V9.51   TASK1                                                                 07/01/2014 18:20:50 PAGE 39  

0126 120000      E     LCALL   _SPIM_WriteTxData
0129         ?C0037:
                                           ; SOURCE LINE # 168
0129 120000      E     LCALL   SPIM_ReadTxStatus
012C EF                MOV     A,R7
012D 30E1F9            JNB     ACC.1,?C0037
0130         ?C0038:
                                           ; SOURCE LINE # 170
0130 7F0F              MOV     R7,#0FH
0132 7E00              MOV     R6,#00H
0134 120000      E     LCALL   _CyDelayUs
                                           ; SOURCE LINE # 172
0137 90502C            MOV     DPTR,#0502CH
013A E0                MOVX    A,@DPTR
013B FF                MOV     R7,A
013C EF                MOV     A,R7
013D 4401              ORL     A,#01H
013F FF                MOV     R7,A
0140 EF                MOV     A,R7
0141 F0                MOVX    @DPTR,A
                                           ; SOURCE LINE # 174
0142 7F14              MOV     R7,#014H
0144 7E00              MOV     R6,#00H
0146 120000      E     LCALL   _CyDelayUs
                                           ; SOURCE LINE # 176
0149 90502C            MOV     DPTR,#0502CH
014C E0                MOVX    A,@DPTR
014D FF                MOV     R7,A
014E EF                MOV     A,R7
014F 54FE              ANL     A,#0FEH
0151 FF                MOV     R7,A
0152 EF                MOV     A,R7
0153 F0                MOVX    @DPTR,A
                                           ; SOURCE LINE # 178
0154 7F08              MOV     R7,#08H
0156 120000      E     LCALL   _SPIM_WriteTxData
                                           ; SOURCE LINE # 179
0159 7F00              MOV     R7,#00H
015B 120000      E     LCALL   _SPIM_WriteTxData
                                           ; SOURCE LINE # 180
015E 7F11              MOV     R7,#011H
0160 120000      E     LCALL   _SPIM_WriteTxData
0163         ?C0039:
                                           ; SOURCE LINE # 181
0163 120000      E     LCALL   SPIM_ReadTxStatus
0166 EF                MOV     A,R7
0167 30E1F9            JNB     ACC.1,?C0039
016A         ?C0040:
                                           ; SOURCE LINE # 183
016A 7F0F              MOV     R7,#0FH
016C 7E00              MOV     R6,#00H
016E 120000      E     LCALL   _CyDelayUs
                                           ; SOURCE LINE # 185
0171 90502C            MOV     DPTR,#0502CH
0174 E0                MOVX    A,@DPTR
0175 FF                MOV     R7,A
0176 EF                MOV     A,R7
0177 4401              ORL     A,#01H
0179 FF                MOV     R7,A
017A EF                MOV     A,R7
017B F0                MOVX    @DPTR,A
                                           ; SOURCE LINE # 187
C51 COMPILER V9.51   TASK1                                                                 07/01/2014 18:20:50 PAGE 40  

017C 7F14              MOV     R7,#014H
017E 7E00              MOV     R6,#00H
0180 120000      E     LCALL   _CyDelayUs
                                           ; SOURCE LINE # 189
0183 90502C            MOV     DPTR,#0502CH
0186 E0                MOVX    A,@DPTR
0187 FF                MOV     R7,A
0188 EF                MOV     A,R7
0189 54FE              ANL     A,#0FEH
018B FF                MOV     R7,A
018C EF                MOV     A,R7
018D F0                MOVX    @DPTR,A
                                           ; SOURCE LINE # 191
018E 7F0F              MOV     R7,#0FH
0190 120000      E     LCALL   _SPIM_WriteTxData
                                           ; SOURCE LINE # 192
0193 7F00              MOV     R7,#00H
0195 120000      E     LCALL   _SPIM_WriteTxData
                                           ; SOURCE LINE # 193
0198 7F00              MOV     R7,#00H
019A 120000      E     LCALL   _SPIM_WriteTxData
019D         ?C0041:
                                           ; SOURCE LINE # 194
019D 120000      E     LCALL   SPIM_ReadTxStatus
01A0 EF                MOV     A,R7
01A1 30E1F9            JNB     ACC.1,?C0041
01A4         ?C0042:
                                           ; SOURCE LINE # 196
01A4 7F0F              MOV     R7,#0FH
01A6 7E00              MOV     R6,#00H
01A8 120000      E     LCALL   _CyDelayUs
                                           ; SOURCE LINE # 198
01AB 90502C            MOV     DPTR,#0502CH
01AE E0                MOVX    A,@DPTR
01AF FF                MOV     R7,A
01B0 EF                MOV     A,R7
01B1 4401              ORL     A,#01H
01B3 FF                MOV     R7,A
01B4 EF                MOV     A,R7
01B5 F0                MOVX    @DPTR,A
                                           ; SOURCE LINE # 200
01B6 020000      R     LJMP    ?C0043
01B9         ?C0030:
                                           ; SOURCE LINE # 201
01B9 900000      R     MOV     DPTR,#val_t
01BC E0                MOVX    A,@DPTR
01BD FE                MOV     R6,A
01BE A3                INC     DPTR
01BF E0                MOVX    A,@DPTR
01C0 FF                MOV     R7,A
01C1 C3                CLR     C
01C2 EF                MOV     A,R7
01C3 9410              SUBB    A,#010H
01C5 EE                MOV     A,R6
01C6 6480              XRL     A,#080H
01C8 9480              SUBB    A,#080H
01CA 5003              JNC     $ + 5H
01CC 020000      R     LJMP    ?C0044
01CF 900000      R     MOV     DPTR,#val_t
01D2 E0                MOVX    A,@DPTR
01D3 FE                MOV     R6,A
01D4 A3                INC     DPTR
C51 COMPILER V9.51   TASK1                                                                 07/01/2014 18:20:50 PAGE 41  

01D5 E0                MOVX    A,@DPTR
01D6 FF                MOV     R7,A
01D7 D3                SETB    C
01D8 EF                MOV     A,R7
01D9 941F              SUBB    A,#01FH
01DB EE                MOV     A,R6
01DC 6480              XRL     A,#080H
01DE 9480              SUBB    A,#080H
01E0 4003              JC      $ + 5H
01E2 020000      R     LJMP    ?C0044
                                           ; SOURCE LINE # 202
                                           ; SOURCE LINE # 203
01E5 900000      R     MOV     DPTR,#val_t
01E8 74FF              MOV     A,#0FFH
01EA 75F0F0            MOV     B,#0F0H
01ED 120000      E     LCALL   ?C?IILDX
                                           ; SOURCE LINE # 204
01F0 900000      R     MOV     DPTR,#val_t
01F3 E0                MOVX    A,@DPTR
01F4 FE                MOV     R6,A
01F5 A3                INC     DPTR
01F6 E0                MOVX    A,@DPTR
01F7 FF                MOV     R7,A
01F8 7401              MOV     A,#01H
01FA 7E00              MOV     R6,#00H
01FC A807              MOV     R0,AR7
01FE 08                INC     R0
01FF 8005              SJMP    ?C0417
0201         ?C0416:
0201 C3                CLR     C
0202 33                RLC     A
0203 CE                XCH     A,R6
0204 33                RLC     A
0205 CE                XCH     A,R6
0206         ?C0417:
0206 D8F9              DJNZ    R0,?C0416
0208 FF                MOV     R7,A
0209 900000      R     MOV     DPTR,#temp
020C EE                MOV     A,R6
020D F0                MOVX    @DPTR,A
020E A3                INC     DPTR
020F EF                MOV     A,R7
0210 F0                MOVX    @DPTR,A
                                           ; SOURCE LINE # 205
0211 900000      R     MOV     DPTR,#temp
0214 E0                MOVX    A,@DPTR
0215 FE                MOV     R6,A
0216 A3                INC     DPTR
0217 E0                MOVX    A,@DPTR
0218 FF                MOV     R7,A
0219 EE                MOV     A,R6
021A FF                MOV     R7,A
021B 7E00              MOV     R6,#00H
021D 900000      R     MOV     DPTR,#temp1
0220 EF                MOV     A,R7
0221 F0                MOVX    @DPTR,A
                                           ; SOURCE LINE # 207
0222 90502C            MOV     DPTR,#0502CH
0225 E0                MOVX    A,@DPTR
0226 FF                MOV     R7,A
0227 EF                MOV     A,R7
0228 54FE              ANL     A,#0FEH
C51 COMPILER V9.51   TASK1                                                                 07/01/2014 18:20:50 PAGE 42  

022A FF                MOV     R7,A
022B EF                MOV     A,R7
022C F0                MOVX    @DPTR,A
                                           ; SOURCE LINE # 209
022D 7F00              MOV     R7,#00H
022F 120000      E     LCALL   _SPIM_WriteTxData
                                           ; SOURCE LINE # 210
0232 7F00              MOV     R7,#00H
0234 120000      E     LCALL   _SPIM_WriteTxData
                                           ; SOURCE LINE # 211
0237 7F00              MOV     R7,#00H
0239 120000      E     LCALL   _SPIM_WriteTxData
023C         ?C0045:
                                           ; SOURCE LINE # 212
023C 120000      E     LCALL   SPIM_ReadTxStatus
023F EF                MOV     A,R7
0240 30E1F9            JNB     ACC.1,?C0045
0243         ?C0046:
                                           ; SOURCE LINE # 214
0243 7F0F              MOV     R7,#0FH
0245 7E00              MOV     R6,#00H
0247 120000      E     LCALL   _CyDelayUs
                                           ; SOURCE LINE # 216
024A 90502C            MOV     DPTR,#0502CH
024D E0                MOVX    A,@DPTR
024E FF                MOV     R7,A
024F EF                MOV     A,R7
0250 4401              ORL     A,#01H
0252 FF                MOV     R7,A
0253 EF                MOV     A,R7
0254 F0                MOVX    @DPTR,A
                                           ; SOURCE LINE # 218
0255 7F14              MOV     R7,#014H
0257 7E00              MOV     R6,#00H
0259 120000      E     LCALL   _CyDelayUs
                                           ; SOURCE LINE # 220
025C 90502C            MOV     DPTR,#0502CH
025F E0                MOVX    A,@DPTR
0260 FF                MOV     R7,A
0261 EF                MOV     A,R7
0262 54FE              ANL     A,#0FEH
0264 FF                MOV     R7,A
0265 EF                MOV     A,R7
0266 F0                MOVX    @DPTR,A
                                           ; SOURCE LINE # 222
0267 7F01              MOV     R7,#01H
0269 120000      E     LCALL   _SPIM_WriteTxData
                                           ; SOURCE LINE # 223
026C 900000      R     MOV     DPTR,#temp1
026F E0                MOVX    A,@DPTR
0270 FF                MOV     R7,A
0271 120000      E     LCALL   _SPIM_WriteTxData
                                           ; SOURCE LINE # 224
0274 900000      R     MOV     DPTR,#temp
0277 E0                MOVX    A,@DPTR
0278 FE                MOV     R6,A
0279 A3                INC     DPTR
027A E0                MOVX    A,@DPTR
027B FF                MOV     R7,A
027C 120000      E     LCALL   _SPIM_WriteTxData
027F         ?C0047:
                                           ; SOURCE LINE # 225
C51 COMPILER V9.51   TASK1                                                                 07/01/2014 18:20:50 PAGE 43  

027F 120000      E     LCALL   SPIM_ReadTxStatus
0282 EF                MOV     A,R7
0283 30E1F9            JNB     ACC.1,?C0047
0286         ?C0048:
                                           ; SOURCE LINE # 227
0286 7F0F              MOV     R7,#0FH
0288 7E00              MOV     R6,#00H
028A 120000      E     LCALL   _CyDelayUs
                                           ; SOURCE LINE # 229
028D 90502C            MOV     DPTR,#0502CH
0290 E0                MOVX    A,@DPTR
0291 FF                MOV     R7,A
0292 EF                MOV     A,R7
0293 4401              ORL     A,#01H
0295 FF                MOV     R7,A
0296 EF                MOV     A,R7
0297 F0                MOVX    @DPTR,A
                                           ; SOURCE LINE # 231
0298 7F14              MOV     R7,#014H
029A 7E00              MOV     R6,#00H
029C 120000      E     LCALL   _CyDelayUs
                                           ; SOURCE LINE # 233
029F 90502C            MOV     DPTR,#0502CH
02A2 E0                MOVX    A,@DPTR
02A3 FF                MOV     R7,A
02A4 EF                MOV     A,R7
02A5 54FE              ANL     A,#0FEH
02A7 FF                MOV     R7,A
02A8 EF                MOV     A,R7
02A9 F0                MOVX    @DPTR,A
                                           ; SOURCE LINE # 235
02AA 7F02              MOV     R7,#02H
02AC 120000      E     LCALL   _SPIM_WriteTxData
                                           ; SOURCE LINE # 236
02AF 7F00              MOV     R7,#00H
02B1 120000      E     LCALL   _SPIM_WriteTxData
                                           ; SOURCE LINE # 237
02B4 7F00              MOV     R7,#00H
02B6 120000      E     LCALL   _SPIM_WriteTxData
02B9         ?C0049:
                                           ; SOURCE LINE # 238
02B9 120000      E     LCALL   SPIM_ReadTxStatus
02BC EF                MOV     A,R7
02BD 30E1F9            JNB     ACC.1,?C0049
02C0         ?C0050:
                                           ; SOURCE LINE # 240
02C0 7F0F              MOV     R7,#0FH
02C2 7E00              MOV     R6,#00H
02C4 120000      E     LCALL   _CyDelayUs
                                           ; SOURCE LINE # 242
02C7 90502C            MOV     DPTR,#0502CH
02CA E0                MOVX    A,@DPTR
02CB FF                MOV     R7,A
02CC EF                MOV     A,R7
02CD 4401              ORL     A,#01H
02CF FF                MOV     R7,A
02D0 EF                MOV     A,R7
02D1 F0                MOVX    @DPTR,A
                                           ; SOURCE LINE # 244
02D2 7F14              MOV     R7,#014H
02D4 7E00              MOV     R6,#00H
02D6 120000      E     LCALL   _CyDelayUs
C51 COMPILER V9.51   TASK1                                                                 07/01/2014 18:20:50 PAGE 44  

                                           ; SOURCE LINE # 246
02D9 90502C            MOV     DPTR,#0502CH
02DC E0                MOVX    A,@DPTR
02DD FF                MOV     R7,A
02DE EF                MOV     A,R7
02DF 54FE              ANL     A,#0FEH
02E1 FF                MOV     R7,A
02E2 EF                MOV     A,R7
02E3 F0                MOVX    @DPTR,A
                                           ; SOURCE LINE # 248
02E4 7F03              MOV     R7,#03H
02E6 120000      E     LCALL   _SPIM_WriteTxData
                                           ; SOURCE LINE # 249
02E9 7F00              MOV     R7,#00H
02EB 120000      E     LCALL   _SPIM_WriteTxData
                                           ; SOURCE LINE # 250
02EE 7F00              MOV     R7,#00H
02F0 120000      E     LCALL   _SPIM_WriteTxData
02F3         ?C0051:
                                           ; SOURCE LINE # 251
02F3 120000      E     LCALL   SPIM_ReadTxStatus
02F6 EF                MOV     A,R7
02F7 30E1F9            JNB     ACC.1,?C0051
02FA         ?C0052:
                                           ; SOURCE LINE # 253
02FA 7F0F              MOV     R7,#0FH
02FC 7E00              MOV     R6,#00H
02FE 120000      E     LCALL   _CyDelayUs
                                           ; SOURCE LINE # 255
0301 90502C            MOV     DPTR,#0502CH
0304 E0                MOVX    A,@DPTR
0305 FF                MOV     R7,A
0306 EF                MOV     A,R7
0307 4401              ORL     A,#01H
0309 FF                MOV     R7,A
030A EF                MOV     A,R7
030B F0                MOVX    @DPTR,A
                                           ; SOURCE LINE # 257
030C 7F14              MOV     R7,#014H
030E 7E00              MOV     R6,#00H
0310 120000      E     LCALL   _CyDelayUs
                                           ; SOURCE LINE # 259
0313 90502C            MOV     DPTR,#0502CH
0316 E0                MOVX    A,@DPTR
0317 FF                MOV     R7,A
0318 EF                MOV     A,R7
0319 54FE              ANL     A,#0FEH
031B FF                MOV     R7,A
031C EF                MOV     A,R7
031D F0                MOVX    @DPTR,A
                                           ; SOURCE LINE # 261
031E 7F08              MOV     R7,#08H
0320 120000      E     LCALL   _SPIM_WriteTxData
                                           ; SOURCE LINE # 262
0323 7F00              MOV     R7,#00H
0325 120000      E     LCALL   _SPIM_WriteTxData
                                           ; SOURCE LINE # 263
0328 7F12              MOV     R7,#012H
032A 120000      E     LCALL   _SPIM_WriteTxData
032D         ?C0053:
                                           ; SOURCE LINE # 264
032D 120000      E     LCALL   SPIM_ReadTxStatus
C51 COMPILER V9.51   TASK1                                                                 07/01/2014 18:20:50 PAGE 45  

0330 EF                MOV     A,R7
0331 30E1F9            JNB     ACC.1,?C0053
0334         ?C0054:
                                           ; SOURCE LINE # 266
0334 7F0F              MOV     R7,#0FH
0336 7E00              MOV     R6,#00H
0338 120000      E     LCALL   _CyDelayUs
                                           ; SOURCE LINE # 268
033B 90502C            MOV     DPTR,#0502CH
033E E0                MOVX    A,@DPTR
033F FF                MOV     R7,A
0340 EF                MOV     A,R7
0341 4401              ORL     A,#01H
0343 FF                MOV     R7,A
0344 EF                MOV     A,R7
0345 F0                MOVX    @DPTR,A
                                           ; SOURCE LINE # 270
0346 7F14              MOV     R7,#014H
0348 7E00              MOV     R6,#00H
034A 120000      E     LCALL   _CyDelayUs
                                           ; SOURCE LINE # 272
034D 90502C            MOV     DPTR,#0502CH
0350 E0                MOVX    A,@DPTR
0351 FF                MOV     R7,A
0352 EF                MOV     A,R7
0353 54FE              ANL     A,#0FEH
0355 FF                MOV     R7,A
0356 EF                MOV     A,R7
0357 F0                MOVX    @DPTR,A
                                           ; SOURCE LINE # 274
0358 7F0F              MOV     R7,#0FH
035A 120000      E     LCALL   _SPIM_WriteTxData
                                           ; SOURCE LINE # 275
035D 7F00              MOV     R7,#00H
035F 120000      E     LCALL   _SPIM_WriteTxData
                                           ; SOURCE LINE # 276
0362 7F00              MOV     R7,#00H
0364 120000      E     LCALL   _SPIM_WriteTxData
0367         ?C0055:
                                           ; SOURCE LINE # 277
0367 120000      E     LCALL   SPIM_ReadTxStatus
036A EF                MOV     A,R7
036B 30E1F9            JNB     ACC.1,?C0055
036E         ?C0056:
                                           ; SOURCE LINE # 279
036E 7F0F              MOV     R7,#0FH
0370 7E00              MOV     R6,#00H
0372 120000      E     LCALL   _CyDelayUs
                                           ; SOURCE LINE # 281
0375 90502C            MOV     DPTR,#0502CH
0378 E0                MOVX    A,@DPTR
0379 FF                MOV     R7,A
037A EF                MOV     A,R7
037B 4401              ORL     A,#01H
037D FF                MOV     R7,A
037E EF                MOV     A,R7
037F F0                MOVX    @DPTR,A
                                           ; SOURCE LINE # 282
0380 020000      R     LJMP    ?C0043
0383         ?C0044:
                                           ; SOURCE LINE # 283
0383 900000      R     MOV     DPTR,#val_t
C51 COMPILER V9.51   TASK1                                                                 07/01/2014 18:20:50 PAGE 46  

0386 E0                MOVX    A,@DPTR
0387 FE                MOV     R6,A
0388 A3                INC     DPTR
0389 E0                MOVX    A,@DPTR
038A FF                MOV     R7,A
038B C3                CLR     C
038C EF                MOV     A,R7
038D 9420              SUBB    A,#020H
038F EE                MOV     A,R6
0390 6480              XRL     A,#080H
0392 9480              SUBB    A,#080H
0394 5003              JNC     $ + 5H
0396 020000      R     LJMP    ?C0058
0399 900000      R     MOV     DPTR,#val_t
039C E0                MOVX    A,@DPTR
039D FE                MOV     R6,A
039E A3                INC     DPTR
039F E0                MOVX    A,@DPTR
03A0 FF                MOV     R7,A
03A1 D3                SETB    C
03A2 EF                MOV     A,R7
03A3 942F              SUBB    A,#02FH
03A5 EE                MOV     A,R6
03A6 6480              XRL     A,#080H
03A8 9480              SUBB    A,#080H
03AA 4003              JC      $ + 5H
03AC 020000      R     LJMP    ?C0058
                                           ; SOURCE LINE # 284
                                           ; SOURCE LINE # 285
03AF 900000      R     MOV     DPTR,#val_t
03B2 74FF              MOV     A,#0FFH
03B4 75F0E0            MOV     B,#0E0H
03B7 120000      E     LCALL   ?C?IILDX
                                           ; SOURCE LINE # 286
03BA 900000      R     MOV     DPTR,#val_t
03BD E0                MOVX    A,@DPTR
03BE FE                MOV     R6,A
03BF A3                INC     DPTR
03C0 E0                MOVX    A,@DPTR
03C1 FF                MOV     R7,A
03C2 7401              MOV     A,#01H
03C4 7E00              MOV     R6,#00H
03C6 A807              MOV     R0,AR7
03C8 08                INC     R0
03C9 8005              SJMP    ?C0419
03CB         ?C0418:
03CB C3                CLR     C
03CC 33                RLC     A
03CD CE                XCH     A,R6
03CE 33                RLC     A
03CF CE                XCH     A,R6
03D0         ?C0419:
03D0 D8F9              DJNZ    R0,?C0418
03D2 FF                MOV     R7,A
03D3 900000      R     MOV     DPTR,#temp
03D6 EE                MOV     A,R6
03D7 F0                MOVX    @DPTR,A
03D8 A3                INC     DPTR
03D9 EF                MOV     A,R7
03DA F0                MOVX    @DPTR,A
                                           ; SOURCE LINE # 287
03DB 900000      R     MOV     DPTR,#temp
C51 COMPILER V9.51   TASK1                                                                 07/01/2014 18:20:50 PAGE 47  

03DE E0                MOVX    A,@DPTR
03DF FE                MOV     R6,A
03E0 A3                INC     DPTR
03E1 E0                MOVX    A,@DPTR
03E2 FF                MOV     R7,A
03E3 EE                MOV     A,R6
03E4 FF                MOV     R7,A
03E5 7E00              MOV     R6,#00H
03E7 900000      R     MOV     DPTR,#temp1
03EA EF                MOV     A,R7
03EB F0                MOVX    @DPTR,A
                                           ; SOURCE LINE # 289
03EC 90502C            MOV     DPTR,#0502CH
03EF E0                MOVX    A,@DPTR
03F0 FF                MOV     R7,A
03F1 EF                MOV     A,R7
03F2 54FE              ANL     A,#0FEH
03F4 FF                MOV     R7,A
03F5 EF                MOV     A,R7
03F6 F0                MOVX    @DPTR,A
                                           ; SOURCE LINE # 291
03F7 7F00              MOV     R7,#00H
03F9 120000      E     LCALL   _SPIM_WriteTxData
                                           ; SOURCE LINE # 292
03FC 7F00              MOV     R7,#00H
03FE 120000      E     LCALL   _SPIM_WriteTxData
                                           ; SOURCE LINE # 293
0401 7F00              MOV     R7,#00H
0403 120000      E     LCALL   _SPIM_WriteTxData
0406         ?C0059:
                                           ; SOURCE LINE # 294
0406 120000      E     LCALL   SPIM_ReadTxStatus
0409 EF                MOV     A,R7
040A 30E1F9            JNB     ACC.1,?C0059
040D         ?C0060:
                                           ; SOURCE LINE # 296
040D 7F0F              MOV     R7,#0FH
040F 7E00              MOV     R6,#00H
0411 120000      E     LCALL   _CyDelayUs
                                           ; SOURCE LINE # 298
0414 90502C            MOV     DPTR,#0502CH
0417 E0                MOVX    A,@DPTR
0418 FF                MOV     R7,A
0419 EF                MOV     A,R7
041A 4401              ORL     A,#01H
041C FF                MOV     R7,A
041D EF                MOV     A,R7
041E F0                MOVX    @DPTR,A
                                           ; SOURCE LINE # 300
041F 7F14              MOV     R7,#014H
0421 7E00              MOV     R6,#00H
0423 120000      E     LCALL   _CyDelayUs
                                           ; SOURCE LINE # 302
0426 90502C            MOV     DPTR,#0502CH
0429 E0                MOVX    A,@DPTR
042A FF                MOV     R7,A
042B EF                MOV     A,R7
042C 54FE              ANL     A,#0FEH
042E FF                MOV     R7,A
042F EF                MOV     A,R7
0430 F0                MOVX    @DPTR,A
                                           ; SOURCE LINE # 304
C51 COMPILER V9.51   TASK1                                                                 07/01/2014 18:20:50 PAGE 48  

0431 7F01              MOV     R7,#01H
0433 120000      E     LCALL   _SPIM_WriteTxData
                                           ; SOURCE LINE # 305
0436 7F00              MOV     R7,#00H
0438 120000      E     LCALL   _SPIM_WriteTxData
                                           ; SOURCE LINE # 306
043B 7F00              MOV     R7,#00H
043D 120000      E     LCALL   _SPIM_WriteTxData
0440         ?C0061:
                                           ; SOURCE LINE # 307
0440 120000      E     LCALL   SPIM_ReadTxStatus
0443 EF                MOV     A,R7
0444 30E1F9            JNB     ACC.1,?C0061
0447         ?C0062:
                                           ; SOURCE LINE # 309
0447 7F0F              MOV     R7,#0FH
0449 7E00              MOV     R6,#00H
044B 120000      E     LCALL   _CyDelayUs
                                           ; SOURCE LINE # 311
044E 90502C            MOV     DPTR,#0502CH
0451 E0                MOVX    A,@DPTR
0452 FF                MOV     R7,A
0453 EF                MOV     A,R7
0454 4401              ORL     A,#01H
0456 FF                MOV     R7,A
0457 EF                MOV     A,R7
0458 F0                MOVX    @DPTR,A
                                           ; SOURCE LINE # 313
0459 7F14              MOV     R7,#014H
045B 7E00              MOV     R6,#00H
045D 120000      E     LCALL   _CyDelayUs
                                           ; SOURCE LINE # 315
0460 90502C            MOV     DPTR,#0502CH
0463 E0                MOVX    A,@DPTR
0464 FF                MOV     R7,A
0465 EF                MOV     A,R7
0466 54FE              ANL     A,#0FEH
0468 FF                MOV     R7,A
0469 EF                MOV     A,R7
046A F0                MOVX    @DPTR,A
                                           ; SOURCE LINE # 317
046B 7F02              MOV     R7,#02H
046D 120000      E     LCALL   _SPIM_WriteTxData
                                           ; SOURCE LINE # 318
0470 900000      R     MOV     DPTR,#temp1
0473 E0                MOVX    A,@DPTR
0474 FF                MOV     R7,A
0475 120000      E     LCALL   _SPIM_WriteTxData
                                           ; SOURCE LINE # 319
0478 900000      R     MOV     DPTR,#temp
047B E0                MOVX    A,@DPTR
047C FE                MOV     R6,A
047D A3                INC     DPTR
047E E0                MOVX    A,@DPTR
047F FF                MOV     R7,A
0480 120000      E     LCALL   _SPIM_WriteTxData
0483         ?C0063:
                                           ; SOURCE LINE # 320
0483 120000      E     LCALL   SPIM_ReadTxStatus
0486 EF                MOV     A,R7
0487 30E1F9            JNB     ACC.1,?C0063
048A         ?C0064:
C51 COMPILER V9.51   TASK1                                                                 07/01/2014 18:20:50 PAGE 49  

                                           ; SOURCE LINE # 322
048A 7F0F              MOV     R7,#0FH
048C 7E00              MOV     R6,#00H
048E 120000      E     LCALL   _CyDelayUs
                                           ; SOURCE LINE # 324
0491 90502C            MOV     DPTR,#0502CH
0494 E0                MOVX    A,@DPTR
0495 FF                MOV     R7,A
0496 EF                MOV     A,R7
0497 4401              ORL     A,#01H
0499 FF                MOV     R7,A
049A EF                MOV     A,R7
049B F0                MOVX    @DPTR,A
                                           ; SOURCE LINE # 326
049C 7F14              MOV     R7,#014H
049E 7E00              MOV     R6,#00H
04A0 120000      E     LCALL   _CyDelayUs
                                           ; SOURCE LINE # 328
04A3 90502C            MOV     DPTR,#0502CH
04A6 E0                MOVX    A,@DPTR
04A7 FF                MOV     R7,A
04A8 EF                MOV     A,R7
04A9 54FE              ANL     A,#0FEH
04AB FF                MOV     R7,A
04AC EF                MOV     A,R7
04AD F0                MOVX    @DPTR,A
                                           ; SOURCE LINE # 330
04AE 7F03              MOV     R7,#03H
04B0 120000      E     LCALL   _SPIM_WriteTxData
                                           ; SOURCE LINE # 331
04B3 7F00              MOV     R7,#00H
04B5 120000      E     LCALL   _SPIM_WriteTxData
                                           ; SOURCE LINE # 332
04B8 7F00              MOV     R7,#00H
04BA 120000      E     LCALL   _SPIM_WriteTxData
04BD         ?C0065:
                                           ; SOURCE LINE # 333
04BD 120000      E     LCALL   SPIM_ReadTxStatus
04C0 EF                MOV     A,R7
04C1 30E1F9            JNB     ACC.1,?C0065
04C4         ?C0066:
                                           ; SOURCE LINE # 335
04C4 7F0F              MOV     R7,#0FH
04C6 7E00              MOV     R6,#00H
04C8 120000      E     LCALL   _CyDelayUs
                                           ; SOURCE LINE # 337
04CB 90502C            MOV     DPTR,#0502CH
04CE E0                MOVX    A,@DPTR
04CF FF                MOV     R7,A
04D0 EF                MOV     A,R7
04D1 4401              ORL     A,#01H
04D3 FF                MOV     R7,A
04D4 EF                MOV     A,R7
04D5 F0                MOVX    @DPTR,A
                                           ; SOURCE LINE # 339
04D6 7F14              MOV     R7,#014H
04D8 7E00              MOV     R6,#00H
04DA 120000      E     LCALL   _CyDelayUs
                                           ; SOURCE LINE # 341
04DD 90502C            MOV     DPTR,#0502CH
04E0 E0                MOVX    A,@DPTR
04E1 FF                MOV     R7,A
C51 COMPILER V9.51   TASK1                                                                 07/01/2014 18:20:50 PAGE 50  

04E2 EF                MOV     A,R7
04E3 54FE              ANL     A,#0FEH
04E5 FF                MOV     R7,A
04E6 EF                MOV     A,R7
04E7 F0                MOVX    @DPTR,A
                                           ; SOURCE LINE # 343
04E8 7F08              MOV     R7,#08H
04EA 120000      E     LCALL   _SPIM_WriteTxData
                                           ; SOURCE LINE # 344
04ED 7F00              MOV     R7,#00H
04EF 120000      E     LCALL   _SPIM_WriteTxData
                                           ; SOURCE LINE # 345
04F2 7F14              MOV     R7,#014H
04F4 120000      E     LCALL   _SPIM_WriteTxData
04F7         ?C0067:
                                           ; SOURCE LINE # 346
04F7 120000      E     LCALL   SPIM_ReadTxStatus
04FA EF                MOV     A,R7
04FB 30E1F9            JNB     ACC.1,?C0067
04FE         ?C0068:
                                           ; SOURCE LINE # 348
04FE 7F0F              MOV     R7,#0FH
0500 7E00              MOV     R6,#00H
0502 120000      E     LCALL   _CyDelayUs
                                           ; SOURCE LINE # 350
0505 90502C            MOV     DPTR,#0502CH
0508 E0                MOVX    A,@DPTR
0509 FF                MOV     R7,A
050A EF                MOV     A,R7
050B 4401              ORL     A,#01H
050D FF                MOV     R7,A
050E EF                MOV     A,R7
050F F0                MOVX    @DPTR,A
                                           ; SOURCE LINE # 352
0510 7F14              MOV     R7,#014H
0512 7E00              MOV     R6,#00H
0514 120000      E     LCALL   _CyDelayUs
                                           ; SOURCE LINE # 354
0517 90502C            MOV     DPTR,#0502CH
051A E0                MOVX    A,@DPTR
051B FF                MOV     R7,A
051C EF                MOV     A,R7
051D 54FE              ANL     A,#0FEH
051F FF                MOV     R7,A
0520 EF                MOV     A,R7
0521 F0                MOVX    @DPTR,A
                                           ; SOURCE LINE # 356
0522 7F0F              MOV     R7,#0FH
0524 120000      E     LCALL   _SPIM_WriteTxData
                                           ; SOURCE LINE # 357
0527 7F00              MOV     R7,#00H
0529 120000      E     LCALL   _SPIM_WriteTxData
                                           ; SOURCE LINE # 358
052C 7F00              MOV     R7,#00H
052E 120000      E     LCALL   _SPIM_WriteTxData
0531         ?C0069:
                                           ; SOURCE LINE # 359
0531 120000      E     LCALL   SPIM_ReadTxStatus
0534 EF                MOV     A,R7
0535 30E1F9            JNB     ACC.1,?C0069
0538         ?C0070:
                                           ; SOURCE LINE # 361
C51 COMPILER V9.51   TASK1                                                                 07/01/2014 18:20:50 PAGE 51  

0538 7F0F              MOV     R7,#0FH
053A 7E00              MOV     R6,#00H
053C 120000      E     LCALL   _CyDelayUs
                                           ; SOURCE LINE # 363
053F 90502C            MOV     DPTR,#0502CH
0542 E0                MOVX    A,@DPTR
0543 FF                MOV     R7,A
0544 EF                MOV     A,R7
0545 4401              ORL     A,#01H
0547 FF                MOV     R7,A
0548 EF                MOV     A,R7
0549 F0                MOVX    @DPTR,A
                                           ; SOURCE LINE # 364
054A 020000      R     LJMP    ?C0043
054D         ?C0058:
                                           ; SOURCE LINE # 365
054D 900000      R     MOV     DPTR,#val_t
0550 E0                MOVX    A,@DPTR
0551 FE                MOV     R6,A
0552 A3                INC     DPTR
0553 E0                MOVX    A,@DPTR
0554 FF                MOV     R7,A
0555 C3                CLR     C
0556 EF                MOV     A,R7
0557 9430              SUBB    A,#030H
0559 EE                MOV     A,R6
055A 6480              XRL     A,#080H
055C 9480              SUBB    A,#080H
055E 5003              JNC     $ + 5H
0560 020000      R     LJMP    ?C0072
0563 900000      R     MOV     DPTR,#val_t
0566 E0                MOVX    A,@DPTR
0567 FE                MOV     R6,A
0568 A3                INC     DPTR
0569 E0                MOVX    A,@DPTR
056A FF                MOV     R7,A
056B D3                SETB    C
056C EF                MOV     A,R7
056D 943F              SUBB    A,#03FH
056F EE                MOV     A,R6
0570 6480              XRL     A,#080H
0572 9480              SUBB    A,#080H
0574 4003              JC      $ + 5H
0576 020000      R     LJMP    ?C0072
                                           ; SOURCE LINE # 366
                                           ; SOURCE LINE # 367
0579 900000      R     MOV     DPTR,#val_t
057C 74FF              MOV     A,#0FFH
057E 75F0D0            MOV     B,#0D0H
0581 120000      E     LCALL   ?C?IILDX
                                           ; SOURCE LINE # 368
0584 900000      R     MOV     DPTR,#val_t
0587 E0                MOVX    A,@DPTR
0588 FE                MOV     R6,A
0589 A3                INC     DPTR
058A E0                MOVX    A,@DPTR
058B FF                MOV     R7,A
058C 7401              MOV     A,#01H
058E 7E00              MOV     R6,#00H
0590 A807              MOV     R0,AR7
0592 08                INC     R0
0593 8005              SJMP    ?C0421
C51 COMPILER V9.51   TASK1                                                                 07/01/2014 18:20:50 PAGE 52  

0595         ?C0420:
0595 C3                CLR     C
0596 33                RLC     A
0597 CE                XCH     A,R6
0598 33                RLC     A
0599 CE                XCH     A,R6
059A         ?C0421:
059A D8F9              DJNZ    R0,?C0420
059C FF                MOV     R7,A
059D 900000      R     MOV     DPTR,#temp
05A0 EE                MOV     A,R6
05A1 F0                MOVX    @DPTR,A
05A2 A3                INC     DPTR
05A3 EF                MOV     A,R7
05A4 F0                MOVX    @DPTR,A
                                           ; SOURCE LINE # 369
05A5 900000      R     MOV     DPTR,#temp
05A8 E0                MOVX    A,@DPTR
05A9 FE                MOV     R6,A
05AA A3                INC     DPTR
05AB E0                MOVX    A,@DPTR
05AC FF                MOV     R7,A
05AD EE                MOV     A,R6
05AE FF                MOV     R7,A
05AF 7E00              MOV     R6,#00H
05B1 900000      R     MOV     DPTR,#temp1
05B4 EF                MOV     A,R7
05B5 F0                MOVX    @DPTR,A
                                           ; SOURCE LINE # 371
05B6 90502C            MOV     DPTR,#0502CH
05B9 E0                MOVX    A,@DPTR
05BA FF                MOV     R7,A
05BB EF                MOV     A,R7
05BC 54FE              ANL     A,#0FEH
05BE FF                MOV     R7,A
05BF EF                MOV     A,R7
05C0 F0                MOVX    @DPTR,A
                                           ; SOURCE LINE # 373
05C1 7F00              MOV     R7,#00H
05C3 120000      E     LCALL   _SPIM_WriteTxData
                                           ; SOURCE LINE # 374
05C6 7F00              MOV     R7,#00H
05C8 120000      E     LCALL   _SPIM_WriteTxData
                                           ; SOURCE LINE # 375
05CB 7F00              MOV     R7,#00H
05CD 120000      E     LCALL   _SPIM_WriteTxData
05D0         ?C0073:
                                           ; SOURCE LINE # 376
05D0 120000      E     LCALL   SPIM_ReadTxStatus
05D3 EF                MOV     A,R7
05D4 30E1F9            JNB     ACC.1,?C0073
05D7         ?C0074:
                                           ; SOURCE LINE # 378
05D7 7F0F              MOV     R7,#0FH
05D9 7E00              MOV     R6,#00H
05DB 120000      E     LCALL   _CyDelayUs
                                           ; SOURCE LINE # 380
05DE 90502C            MOV     DPTR,#0502CH
05E1 E0                MOVX    A,@DPTR
05E2 FF                MOV     R7,A
05E3 EF                MOV     A,R7
05E4 4401              ORL     A,#01H
C51 COMPILER V9.51   TASK1                                                                 07/01/2014 18:20:50 PAGE 53  

05E6 FF                MOV     R7,A
05E7 EF                MOV     A,R7
05E8 F0                MOVX    @DPTR,A
                                           ; SOURCE LINE # 382
05E9 7F14              MOV     R7,#014H
05EB 7E00              MOV     R6,#00H
05ED 120000      E     LCALL   _CyDelayUs
                                           ; SOURCE LINE # 384
05F0 90502C            MOV     DPTR,#0502CH
05F3 E0                MOVX    A,@DPTR
05F4 FF                MOV     R7,A
05F5 EF                MOV     A,R7
05F6 54FE              ANL     A,#0FEH
05F8 FF                MOV     R7,A
05F9 EF                MOV     A,R7
05FA F0                MOVX    @DPTR,A
                                           ; SOURCE LINE # 386
05FB 7F01              MOV     R7,#01H
05FD 120000      E     LCALL   _SPIM_WriteTxData
                                           ; SOURCE LINE # 387
0600 7F00              MOV     R7,#00H
0602 120000      E     LCALL   _SPIM_WriteTxData
                                           ; SOURCE LINE # 388
0605 7F00              MOV     R7,#00H
0607 120000      E     LCALL   _SPIM_WriteTxData
060A         ?C0075:
                                           ; SOURCE LINE # 389
060A 120000      E     LCALL   SPIM_ReadTxStatus
060D EF                MOV     A,R7
060E 30E1F9            JNB     ACC.1,?C0075
0611         ?C0076:
                                           ; SOURCE LINE # 391
0611 7F0F              MOV     R7,#0FH
0613 7E00              MOV     R6,#00H
0615 120000      E     LCALL   _CyDelayUs
                                           ; SOURCE LINE # 393
0618 90502C            MOV     DPTR,#0502CH
061B E0                MOVX    A,@DPTR
061C FF                MOV     R7,A
061D EF                MOV     A,R7
061E 4401              ORL     A,#01H
0620 FF                MOV     R7,A
0621 EF                MOV     A,R7
0622 F0                MOVX    @DPTR,A
                                           ; SOURCE LINE # 395
0623 7F14              MOV     R7,#014H
0625 7E00              MOV     R6,#00H
0627 120000      E     LCALL   _CyDelayUs
                                           ; SOURCE LINE # 397
062A 90502C            MOV     DPTR,#0502CH
062D E0                MOVX    A,@DPTR
062E FF                MOV     R7,A
062F EF                MOV     A,R7
0630 54FE              ANL     A,#0FEH
0632 FF                MOV     R7,A
0633 EF                MOV     A,R7
0634 F0                MOVX    @DPTR,A
                                           ; SOURCE LINE # 399
0635 7F02              MOV     R7,#02H
0637 120000      E     LCALL   _SPIM_WriteTxData
                                           ; SOURCE LINE # 400
063A 7F00              MOV     R7,#00H
C51 COMPILER V9.51   TASK1                                                                 07/01/2014 18:20:50 PAGE 54  

063C 120000      E     LCALL   _SPIM_WriteTxData
                                           ; SOURCE LINE # 401
063F 7F00              MOV     R7,#00H
0641 120000      E     LCALL   _SPIM_WriteTxData
0644         ?C0077:
                                           ; SOURCE LINE # 402
0644 120000      E     LCALL   SPIM_ReadTxStatus
0647 EF                MOV     A,R7
0648 30E1F9            JNB     ACC.1,?C0077
064B         ?C0078:
                                           ; SOURCE LINE # 404
064B 7F0F              MOV     R7,#0FH
064D 7E00              MOV     R6,#00H
064F 120000      E     LCALL   _CyDelayUs
                                           ; SOURCE LINE # 406
0652 90502C            MOV     DPTR,#0502CH
0655 E0                MOVX    A,@DPTR
0656 FF                MOV     R7,A
0657 EF                MOV     A,R7
0658 4401              ORL     A,#01H
065A FF                MOV     R7,A
065B EF                MOV     A,R7
065C F0                MOVX    @DPTR,A
                                           ; SOURCE LINE # 408
065D 7F14              MOV     R7,#014H
065F 7E00              MOV     R6,#00H
0661 120000      E     LCALL   _CyDelayUs
                                           ; SOURCE LINE # 410
0664 90502C            MOV     DPTR,#0502CH
0667 E0                MOVX    A,@DPTR
0668 FF                MOV     R7,A
0669 EF                MOV     A,R7
066A 54FE              ANL     A,#0FEH
066C FF                MOV     R7,A
066D EF                MOV     A,R7
066E F0                MOVX    @DPTR,A
                                           ; SOURCE LINE # 412
066F 7F03              MOV     R7,#03H
0671 120000      E     LCALL   _SPIM_WriteTxData
                                           ; SOURCE LINE # 413
0674 900000      R     MOV     DPTR,#temp1
0677 E0                MOVX    A,@DPTR
0678 FF                MOV     R7,A
0679 120000      E     LCALL   _SPIM_WriteTxData
                                           ; SOURCE LINE # 414
067C 900000      R     MOV     DPTR,#temp
067F E0                MOVX    A,@DPTR
0680 FE                MOV     R6,A
0681 A3                INC     DPTR
0682 E0                MOVX    A,@DPTR
0683 FF                MOV     R7,A
0684 120000      E     LCALL   _SPIM_WriteTxData
0687         ?C0079:
                                           ; SOURCE LINE # 415
0687 120000      E     LCALL   SPIM_ReadTxStatus
068A EF                MOV     A,R7
068B 30E1F9            JNB     ACC.1,?C0079
068E         ?C0080:
                                           ; SOURCE LINE # 417
068E 7F0F              MOV     R7,#0FH
0690 7E00              MOV     R6,#00H
0692 120000      E     LCALL   _CyDelayUs
C51 COMPILER V9.51   TASK1                                                                 07/01/2014 18:20:50 PAGE 55  

                                           ; SOURCE LINE # 419
0695 90502C            MOV     DPTR,#0502CH
0698 E0                MOVX    A,@DPTR
0699 FF                MOV     R7,A
069A EF                MOV     A,R7
069B 4401              ORL     A,#01H
069D FF                MOV     R7,A
069E EF                MOV     A,R7
069F F0                MOVX    @DPTR,A
                                           ; SOURCE LINE # 421
06A0 7F14              MOV     R7,#014H
06A2 7E00              MOV     R6,#00H
06A4 120000      E     LCALL   _CyDelayUs
                                           ; SOURCE LINE # 423
06A7 90502C            MOV     DPTR,#0502CH
06AA E0                MOVX    A,@DPTR
06AB FF                MOV     R7,A
06AC EF                MOV     A,R7
06AD 54FE              ANL     A,#0FEH
06AF FF                MOV     R7,A
06B0 EF                MOV     A,R7
06B1 F0                MOVX    @DPTR,A
                                           ; SOURCE LINE # 425
06B2 7F08              MOV     R7,#08H
06B4 120000      E     LCALL   _SPIM_WriteTxData
                                           ; SOURCE LINE # 426
06B7 7F00              MOV     R7,#00H
06B9 120000      E     LCALL   _SPIM_WriteTxData
                                           ; SOURCE LINE # 427
06BC 7F18              MOV     R7,#018H
06BE 120000      E     LCALL   _SPIM_WriteTxData
06C1         ?C0081:
                                           ; SOURCE LINE # 428
06C1 120000      E     LCALL   SPIM_ReadTxStatus
06C4 EF                MOV     A,R7
06C5 30E1F9            JNB     ACC.1,?C0081
06C8         ?C0082:
                                           ; SOURCE LINE # 430
06C8 7F0F              MOV     R7,#0FH
06CA 7E00              MOV     R6,#00H
06CC 120000      E     LCALL   _CyDelayUs
                                           ; SOURCE LINE # 432
06CF 90502C            MOV     DPTR,#0502CH
06D2 E0                MOVX    A,@DPTR
06D3 FF                MOV     R7,A
06D4 EF                MOV     A,R7
06D5 4401              ORL     A,#01H
06D7 FF                MOV     R7,A
06D8 EF                MOV     A,R7
06D9 F0                MOVX    @DPTR,A
                                           ; SOURCE LINE # 434
06DA 7F14              MOV     R7,#014H
06DC 7E00              MOV     R6,#00H
06DE 120000      E     LCALL   _CyDelayUs
                                           ; SOURCE LINE # 436
06E1 90502C            MOV     DPTR,#0502CH
06E4 E0                MOVX    A,@DPTR
06E5 FF                MOV     R7,A
06E6 EF                MOV     A,R7
06E7 54FE              ANL     A,#0FEH
06E9 FF                MOV     R7,A
06EA EF                MOV     A,R7
C51 COMPILER V9.51   TASK1                                                                 07/01/2014 18:20:50 PAGE 56  

06EB F0                MOVX    @DPTR,A
                                           ; SOURCE LINE # 438
06EC 7F0F              MOV     R7,#0FH
06EE 120000      E     LCALL   _SPIM_WriteTxData
                                           ; SOURCE LINE # 439
06F1 7F00              MOV     R7,#00H
06F3 120000      E     LCALL   _SPIM_WriteTxData
                                           ; SOURCE LINE # 440
06F6 7F00              MOV     R7,#00H
06F8 120000      E     LCALL   _SPIM_WriteTxData
06FB         ?C0083:
                                           ; SOURCE LINE # 441
06FB 120000      E     LCALL   SPIM_ReadTxStatus
06FE EF                MOV     A,R7
06FF 30E1F9            JNB     ACC.1,?C0083
0702         ?C0084:
                                           ; SOURCE LINE # 443
0702 7F0F              MOV     R7,#0FH
0704 7E00              MOV     R6,#00H
0706 120000      E     LCALL   _CyDelayUs
                                           ; SOURCE LINE # 445
0709 90502C            MOV     DPTR,#0502CH
070C E0                MOVX    A,@DPTR
070D FF                MOV     R7,A
070E EF                MOV     A,R7
070F 4401              ORL     A,#01H
0711 FF                MOV     R7,A
0712 EF                MOV     A,R7
0713 F0                MOVX    @DPTR,A
                                           ; SOURCE LINE # 446
0714 020000      R     LJMP    ?C0043
0717         ?C0072:
                                           ; SOURCE LINE # 448
                                           ; SOURCE LINE # 450
0717 90502C            MOV     DPTR,#0502CH
071A E0                MOVX    A,@DPTR
071B FF                MOV     R7,A
071C EF                MOV     A,R7
071D 54FE              ANL     A,#0FEH
071F FF                MOV     R7,A
0720 EF                MOV     A,R7
0721 F0                MOVX    @DPTR,A
                                           ; SOURCE LINE # 452
0722 7F00              MOV     R7,#00H
0724 120000      E     LCALL   _SPIM_WriteTxData
                                           ; SOURCE LINE # 453
0727 7F00              MOV     R7,#00H
0729 120000      E     LCALL   _SPIM_WriteTxData
                                           ; SOURCE LINE # 454
072C 7F00              MOV     R7,#00H
072E 120000      E     LCALL   _SPIM_WriteTxData
0731         ?C0086:
                                           ; SOURCE LINE # 455
0731 120000      E     LCALL   SPIM_ReadTxStatus
0734 EF                MOV     A,R7
0735 30E1F9            JNB     ACC.1,?C0086
0738         ?C0087:
                                           ; SOURCE LINE # 457
0738 7F0F              MOV     R7,#0FH
073A 7E00              MOV     R6,#00H
073C 120000      E     LCALL   _CyDelayUs
                                           ; SOURCE LINE # 459
C51 COMPILER V9.51   TASK1                                                                 07/01/2014 18:20:50 PAGE 57  

073F 90502C            MOV     DPTR,#0502CH
0742 E0                MOVX    A,@DPTR
0743 FF                MOV     R7,A
0744 EF                MOV     A,R7
0745 4401              ORL     A,#01H
0747 FF                MOV     R7,A
0748 EF                MOV     A,R7
0749 F0                MOVX    @DPTR,A
                                           ; SOURCE LINE # 461
074A 7F14              MOV     R7,#014H
074C 7E00              MOV     R6,#00H
074E 120000      E     LCALL   _CyDelayUs
                                           ; SOURCE LINE # 463
0751 90502C            MOV     DPTR,#0502CH
0754 E0                MOVX    A,@DPTR
0755 FF                MOV     R7,A
0756 EF                MOV     A,R7
0757 54FE              ANL     A,#0FEH
0759 FF                MOV     R7,A
075A EF                MOV     A,R7
075B F0                MOVX    @DPTR,A
                                           ; SOURCE LINE # 465
075C 7F01              MOV     R7,#01H
075E 120000      E     LCALL   _SPIM_WriteTxData
                                           ; SOURCE LINE # 466
0761 7F00              MOV     R7,#00H
0763 120000      E     LCALL   _SPIM_WriteTxData
                                           ; SOURCE LINE # 467
0766 7F00              MOV     R7,#00H
0768 120000      E     LCALL   _SPIM_WriteTxData
076B         ?C0088:
                                           ; SOURCE LINE # 468
076B 120000      E     LCALL   SPIM_ReadTxStatus
076E EF                MOV     A,R7
076F 30E1F9            JNB     ACC.1,?C0088
0772         ?C0089:
                                           ; SOURCE LINE # 470
0772 7F0F              MOV     R7,#0FH
0774 7E00              MOV     R6,#00H
0776 120000      E     LCALL   _CyDelayUs
                                           ; SOURCE LINE # 472
0779 90502C            MOV     DPTR,#0502CH
077C E0                MOVX    A,@DPTR
077D FF                MOV     R7,A
077E EF                MOV     A,R7
077F 4401              ORL     A,#01H
0781 FF                MOV     R7,A
0782 EF                MOV     A,R7
0783 F0                MOVX    @DPTR,A
                                           ; SOURCE LINE # 474
0784 7F14              MOV     R7,#014H
0786 7E00              MOV     R6,#00H
0788 120000      E     LCALL   _CyDelayUs
                                           ; SOURCE LINE # 476
078B 90502C            MOV     DPTR,#0502CH
078E E0                MOVX    A,@DPTR
078F FF                MOV     R7,A
0790 EF                MOV     A,R7
0791 54FE              ANL     A,#0FEH
0793 FF                MOV     R7,A
0794 EF                MOV     A,R7
0795 F0                MOVX    @DPTR,A
C51 COMPILER V9.51   TASK1                                                                 07/01/2014 18:20:50 PAGE 58  

                                           ; SOURCE LINE # 478
0796 7F02              MOV     R7,#02H
0798 120000      E     LCALL   _SPIM_WriteTxData
                                           ; SOURCE LINE # 479
079B 7F00              MOV     R7,#00H
079D 120000      E     LCALL   _SPIM_WriteTxData
                                           ; SOURCE LINE # 480
07A0 7F00              MOV     R7,#00H
07A2 120000      E     LCALL   _SPIM_WriteTxData
07A5         ?C0090:
                                           ; SOURCE LINE # 481
07A5 120000      E     LCALL   SPIM_ReadTxStatus
07A8 EF                MOV     A,R7
07A9 30E1F9            JNB     ACC.1,?C0090
07AC         ?C0091:
                                           ; SOURCE LINE # 483
07AC 7F0F              MOV     R7,#0FH
07AE 7E00              MOV     R6,#00H
07B0 120000      E     LCALL   _CyDelayUs
                                           ; SOURCE LINE # 485
07B3 90502C            MOV     DPTR,#0502CH
07B6 E0                MOVX    A,@DPTR
07B7 FF                MOV     R7,A
07B8 EF                MOV     A,R7
07B9 4401              ORL     A,#01H
07BB FF                MOV     R7,A
07BC EF                MOV     A,R7
07BD F0                MOVX    @DPTR,A
                                           ; SOURCE LINE # 487
07BE 7F14              MOV     R7,#014H
07C0 7E00              MOV     R6,#00H
07C2 120000      E     LCALL   _CyDelayUs
                                           ; SOURCE LINE # 489
07C5 90502C            MOV     DPTR,#0502CH
07C8 E0                MOVX    A,@DPTR
07C9 FF                MOV     R7,A
07CA EF                MOV     A,R7
07CB 54FE              ANL     A,#0FEH
07CD FF                MOV     R7,A
07CE EF                MOV     A,R7
07CF F0                MOVX    @DPTR,A
                                           ; SOURCE LINE # 491
07D0 7F03              MOV     R7,#03H
07D2 120000      E     LCALL   _SPIM_WriteTxData
                                           ; SOURCE LINE # 492
07D5 7F00              MOV     R7,#00H
07D7 120000      E     LCALL   _SPIM_WriteTxData
                                           ; SOURCE LINE # 493
07DA 7F00              MOV     R7,#00H
07DC 120000      E     LCALL   _SPIM_WriteTxData
07DF         ?C0092:
                                           ; SOURCE LINE # 494
07DF 120000      E     LCALL   SPIM_ReadTxStatus
07E2 EF                MOV     A,R7
07E3 30E1F9            JNB     ACC.1,?C0092
07E6         ?C0093:
                                           ; SOURCE LINE # 496
07E6 7F0F              MOV     R7,#0FH
07E8 7E00              MOV     R6,#00H
07EA 120000      E     LCALL   _CyDelayUs
                                           ; SOURCE LINE # 498
07ED 90502C            MOV     DPTR,#0502CH
C51 COMPILER V9.51   TASK1                                                                 07/01/2014 18:20:50 PAGE 59  

07F0 E0                MOVX    A,@DPTR
07F1 FF                MOV     R7,A
07F2 EF                MOV     A,R7
07F3 4401              ORL     A,#01H
07F5 FF                MOV     R7,A
07F6 EF                MOV     A,R7
07F7 F0                MOVX    @DPTR,A
                                           ; SOURCE LINE # 500
07F8 7F14              MOV     R7,#014H
07FA 7E00              MOV     R6,#00H
07FC 120000      E     LCALL   _CyDelayUs
                                           ; SOURCE LINE # 502
07FF 90502C            MOV     DPTR,#0502CH
0802 E0                MOVX    A,@DPTR
0803 FF                MOV     R7,A
0804 EF                MOV     A,R7
0805 54FE              ANL     A,#0FEH
0807 FF                MOV     R7,A
0808 EF                MOV     A,R7
0809 F0                MOVX    @DPTR,A
                                           ; SOURCE LINE # 504
080A 7F08              MOV     R7,#08H
080C 120000      E     LCALL   _SPIM_WriteTxData
                                           ; SOURCE LINE # 505
080F 7F00              MOV     R7,#00H
0811 120000      E     LCALL   _SPIM_WriteTxData
                                           ; SOURCE LINE # 506
0814 7F00              MOV     R7,#00H
0816 120000      E     LCALL   _SPIM_WriteTxData
0819         ?C0094:
                                           ; SOURCE LINE # 507
0819 120000      E     LCALL   SPIM_ReadTxStatus
081C EF                MOV     A,R7
081D 30E1F9            JNB     ACC.1,?C0094
0820         ?C0095:
                                           ; SOURCE LINE # 509
0820 7F0F              MOV     R7,#0FH
0822 7E00              MOV     R6,#00H
0824 120000      E     LCALL   _CyDelayUs
                                           ; SOURCE LINE # 511
0827 90502C            MOV     DPTR,#0502CH
082A E0                MOVX    A,@DPTR
082B FF                MOV     R7,A
082C EF                MOV     A,R7
082D 4401              ORL     A,#01H
082F FF                MOV     R7,A
0830 EF                MOV     A,R7
0831 F0                MOVX    @DPTR,A
                                           ; SOURCE LINE # 513
0832 7F14              MOV     R7,#014H
0834 7E00              MOV     R6,#00H
0836 120000      E     LCALL   _CyDelayUs
                                           ; SOURCE LINE # 515
0839 90502C            MOV     DPTR,#0502CH
083C E0                MOVX    A,@DPTR
083D FF                MOV     R7,A
083E EF                MOV     A,R7
083F 54FE              ANL     A,#0FEH
0841 FF                MOV     R7,A
0842 EF                MOV     A,R7
0843 F0                MOVX    @DPTR,A
                                           ; SOURCE LINE # 517
C51 COMPILER V9.51   TASK1                                                                 07/01/2014 18:20:50 PAGE 60  

0844 7F0F              MOV     R7,#0FH
0846 120000      E     LCALL   _SPIM_WriteTxData
                                           ; SOURCE LINE # 518
0849 7F00              MOV     R7,#00H
084B 120000      E     LCALL   _SPIM_WriteTxData
                                           ; SOURCE LINE # 519
084E 7F00              MOV     R7,#00H
0850 120000      E     LCALL   _SPIM_WriteTxData
0853         ?C0096:
                                           ; SOURCE LINE # 520
0853 120000      E     LCALL   SPIM_ReadTxStatus
0856 EF                MOV     A,R7
0857 30E1F9            JNB     ACC.1,?C0096
085A         ?C0097:
                                           ; SOURCE LINE # 522
085A 7F0F              MOV     R7,#0FH
085C 7E00              MOV     R6,#00H
085E 120000      E     LCALL   _CyDelayUs
                                           ; SOURCE LINE # 524
0861 90502C            MOV     DPTR,#0502CH
0864 E0                MOVX    A,@DPTR
0865 FF                MOV     R7,A
0866 EF                MOV     A,R7
0867 4401              ORL     A,#01H
0869 FF                MOV     R7,A
086A EF                MOV     A,R7
086B F0                MOVX    @DPTR,A
                                           ; SOURCE LINE # 525
086C         ?C0043:
                                           ; SOURCE LINE # 526
086C 7F0A              MOV     R7,#0AH
086E 7E00              MOV     R6,#00H
0870 7D00              MOV     R5,#00H
0872 7C00              MOV     R4,#00H
0874 120000      E     LCALL   _?CyDelay
                                           ; SOURCE LINE # 527
0877 22                RET     
             ; FUNCTION _Test_Chnl_Switch (END)

             ; FUNCTION _Ref_Chnl_Switch (BEGIN)
                                           ; SOURCE LINE # 529
0000 900000      R     MOV     DPTR,#val_r
0003 EE                MOV     A,R6
0004 F0                MOVX    @DPTR,A
0005 A3                INC     DPTR
0006 EF                MOV     A,R7
0007 F0                MOVX    @DPTR,A
                                           ; SOURCE LINE # 530
                                           ; SOURCE LINE # 531
0008 900000      R     MOV     DPTR,#temp
000B E4                CLR     A
000C F0                MOVX    @DPTR,A
000D A3                INC     DPTR
000E E4                CLR     A
000F F0                MOVX    @DPTR,A
                                           ; SOURCE LINE # 534
0010 900000      R     MOV     DPTR,#val_r
0013 E0                MOVX    A,@DPTR
0014 FE                MOV     R6,A
0015 A3                INC     DPTR
0016 E0                MOVX    A,@DPTR
0017 FF                MOV     R7,A
C51 COMPILER V9.51   TASK1                                                                 07/01/2014 18:20:50 PAGE 61  

0018 D3                SETB    C
0019 EF                MOV     A,R7
001A 940F              SUBB    A,#0FH
001C EE                MOV     A,R6
001D 6480              XRL     A,#080H
001F 9480              SUBB    A,#080H
0021 4003              JC      $ + 5H
0023 020000      R     LJMP    ?C0099
                                           ; SOURCE LINE # 535
                                           ; SOURCE LINE # 536
0026 900000      R     MOV     DPTR,#val_r
0029 E0                MOVX    A,@DPTR
002A FE                MOV     R6,A
002B A3                INC     DPTR
002C E0                MOVX    A,@DPTR
002D FF                MOV     R7,A
002E 7401              MOV     A,#01H
0030 7E00              MOV     R6,#00H
0032 A807              MOV     R0,AR7
0034 08                INC     R0
0035 8005              SJMP    ?C0423
0037         ?C0422:
0037 C3                CLR     C
0038 33                RLC     A
0039 CE                XCH     A,R6
003A 33                RLC     A
003B CE                XCH     A,R6
003C         ?C0423:
003C D8F9              DJNZ    R0,?C0422
003E FF                MOV     R7,A
003F 900000      R     MOV     DPTR,#temp
0042 EE                MOV     A,R6
0043 F0                MOVX    @DPTR,A
0044 A3                INC     DPTR
0045 EF                MOV     A,R7
0046 F0                MOVX    @DPTR,A
                                           ; SOURCE LINE # 537
0047 900000      R     MOV     DPTR,#temp
004A E0                MOVX    A,@DPTR
004B FE                MOV     R6,A
004C A3                INC     DPTR
004D E0                MOVX    A,@DPTR
004E FF                MOV     R7,A
004F EE                MOV     A,R6
0050 FF                MOV     R7,A
0051 7E00              MOV     R6,#00H
0053 900000      R     MOV     DPTR,#temp1
0056 EF                MOV     A,R7
0057 F0                MOVX    @DPTR,A
                                           ; SOURCE LINE # 539
0058 90502C            MOV     DPTR,#0502CH
005B E0                MOVX    A,@DPTR
005C FF                MOV     R7,A
005D EF                MOV     A,R7
005E 54FE              ANL     A,#0FEH
0060 FF                MOV     R7,A
0061 EF                MOV     A,R7
0062 F0                MOVX    @DPTR,A
                                           ; SOURCE LINE # 541
0063 7F04              MOV     R7,#04H
0065 120000      E     LCALL   _SPIM_WriteTxData
                                           ; SOURCE LINE # 542
C51 COMPILER V9.51   TASK1                                                                 07/01/2014 18:20:50 PAGE 62  

0068 900000      R     MOV     DPTR,#temp1
006B E0                MOVX    A,@DPTR
006C FF                MOV     R7,A
006D 120000      E     LCALL   _SPIM_WriteTxData
                                           ; SOURCE LINE # 543
0070 900000      R     MOV     DPTR,#temp
0073 E0                MOVX    A,@DPTR
0074 FE                MOV     R6,A
0075 A3                INC     DPTR
0076 E0                MOVX    A,@DPTR
0077 FF                MOV     R7,A
0078 120000      E     LCALL   _SPIM_WriteTxData
007B         ?C0100:
                                           ; SOURCE LINE # 544
007B 120000      E     LCALL   SPIM_ReadTxStatus
007E EF                MOV     A,R7
007F 30E1F9            JNB     ACC.1,?C0100
0082         ?C0101:
                                           ; SOURCE LINE # 546
0082 7F0F              MOV     R7,#0FH
0084 7E00              MOV     R6,#00H
0086 120000      E     LCALL   _CyDelayUs
                                           ; SOURCE LINE # 548
0089 90502C            MOV     DPTR,#0502CH
008C E0                MOVX    A,@DPTR
008D FF                MOV     R7,A
008E EF                MOV     A,R7
008F 4401              ORL     A,#01H
0091 FF                MOV     R7,A
0092 EF                MOV     A,R7
0093 F0                MOVX    @DPTR,A
                                           ; SOURCE LINE # 550
0094 7F14              MOV     R7,#014H
0096 7E00              MOV     R6,#00H
0098 120000      E     LCALL   _CyDelayUs
                                           ; SOURCE LINE # 552
009B 90502C            MOV     DPTR,#0502CH
009E E0                MOVX    A,@DPTR
009F FF                MOV     R7,A
00A0 EF                MOV     A,R7
00A1 54FE              ANL     A,#0FEH
00A3 FF                MOV     R7,A
00A4 EF                MOV     A,R7
00A5 F0                MOVX    @DPTR,A
                                           ; SOURCE LINE # 554
00A6 7F05              MOV     R7,#05H
00A8 120000      E     LCALL   _SPIM_WriteTxData
                                           ; SOURCE LINE # 555
00AB 7F00              MOV     R7,#00H
00AD 120000      E     LCALL   _SPIM_WriteTxData
                                           ; SOURCE LINE # 556
00B0 7F00              MOV     R7,#00H
00B2 120000      E     LCALL   _SPIM_WriteTxData
00B5         ?C0102:
                                           ; SOURCE LINE # 557
00B5 120000      E     LCALL   SPIM_ReadTxStatus
00B8 EF                MOV     A,R7
00B9 30E1F9            JNB     ACC.1,?C0102
00BC         ?C0103:
                                           ; SOURCE LINE # 558
00BC 7F0F              MOV     R7,#0FH
00BE 7E00              MOV     R6,#00H
C51 COMPILER V9.51   TASK1                                                                 07/01/2014 18:20:50 PAGE 63  

00C0 120000      E     LCALL   _CyDelayUs
                                           ; SOURCE LINE # 560
00C3 90502C            MOV     DPTR,#0502CH
00C6 E0                MOVX    A,@DPTR
00C7 FF                MOV     R7,A
00C8 EF                MOV     A,R7
00C9 4401              ORL     A,#01H
00CB FF                MOV     R7,A
00CC EF                MOV     A,R7
00CD F0                MOVX    @DPTR,A
                                           ; SOURCE LINE # 562
00CE 7F14              MOV     R7,#014H
00D0 7E00              MOV     R6,#00H
00D2 120000      E     LCALL   _CyDelayUs
                                           ; SOURCE LINE # 564
00D5 90502C            MOV     DPTR,#0502CH
00D8 E0                MOVX    A,@DPTR
00D9 FF                MOV     R7,A
00DA EF                MOV     A,R7
00DB 54FE              ANL     A,#0FEH
00DD FF                MOV     R7,A
00DE EF                MOV     A,R7
00DF F0                MOVX    @DPTR,A
                                           ; SOURCE LINE # 566
00E0 7F06              MOV     R7,#06H
00E2 120000      E     LCALL   _SPIM_WriteTxData
                                           ; SOURCE LINE # 567
00E5 7F00              MOV     R7,#00H
00E7 120000      E     LCALL   _SPIM_WriteTxData
                                           ; SOURCE LINE # 568
00EA 7F00              MOV     R7,#00H
00EC 120000      E     LCALL   _SPIM_WriteTxData
00EF         ?C0104:
                                           ; SOURCE LINE # 569
00EF 120000      E     LCALL   SPIM_ReadTxStatus
00F2 EF                MOV     A,R7
00F3 30E1F9            JNB     ACC.1,?C0104
00F6         ?C0105:
                                           ; SOURCE LINE # 571
00F6 7F0F              MOV     R7,#0FH
00F8 7E00              MOV     R6,#00H
00FA 120000      E     LCALL   _CyDelayUs
                                           ; SOURCE LINE # 573
00FD 90502C            MOV     DPTR,#0502CH
0100 E0                MOVX    A,@DPTR
0101 FF                MOV     R7,A
0102 EF                MOV     A,R7
0103 4401              ORL     A,#01H
0105 FF                MOV     R7,A
0106 EF                MOV     A,R7
0107 F0                MOVX    @DPTR,A
                                           ; SOURCE LINE # 575
0108 7F14              MOV     R7,#014H
010A 7E00              MOV     R6,#00H
010C 120000      E     LCALL   _CyDelayUs
                                           ; SOURCE LINE # 577
010F 90502C            MOV     DPTR,#0502CH
0112 E0                MOVX    A,@DPTR
0113 FF                MOV     R7,A
0114 EF                MOV     A,R7
0115 54FE              ANL     A,#0FEH
0117 FF                MOV     R7,A
C51 COMPILER V9.51   TASK1                                                                 07/01/2014 18:20:50 PAGE 64  

0118 EF                MOV     A,R7
0119 F0                MOVX    @DPTR,A
                                           ; SOURCE LINE # 579
011A 7F07              MOV     R7,#07H
011C 120000      E     LCALL   _SPIM_WriteTxData
                                           ; SOURCE LINE # 580
011F 7F00              MOV     R7,#00H
0121 120000      E     LCALL   _SPIM_WriteTxData
                                           ; SOURCE LINE # 581
0124 7F00              MOV     R7,#00H
0126 120000      E     LCALL   _SPIM_WriteTxData
0129         ?C0106:
                                           ; SOURCE LINE # 582
0129 120000      E     LCALL   SPIM_ReadTxStatus
012C EF                MOV     A,R7
012D 30E1F9            JNB     ACC.1,?C0106
0130         ?C0107:
                                           ; SOURCE LINE # 583
0130 7F0F              MOV     R7,#0FH
0132 7E00              MOV     R6,#00H
0134 120000      E     LCALL   _CyDelayUs
                                           ; SOURCE LINE # 585
0137 90502C            MOV     DPTR,#0502CH
013A E0                MOVX    A,@DPTR
013B FF                MOV     R7,A
013C EF                MOV     A,R7
013D 4401              ORL     A,#01H
013F FF                MOV     R7,A
0140 EF                MOV     A,R7
0141 F0                MOVX    @DPTR,A
                                           ; SOURCE LINE # 587
0142 7F14              MOV     R7,#014H
0144 7E00              MOV     R6,#00H
0146 120000      E     LCALL   _CyDelayUs
                                           ; SOURCE LINE # 589
0149 90502C            MOV     DPTR,#0502CH
014C E0                MOVX    A,@DPTR
014D FF                MOV     R7,A
014E EF                MOV     A,R7
014F 54FE              ANL     A,#0FEH
0151 FF                MOV     R7,A
0152 EF                MOV     A,R7
0153 F0                MOVX    @DPTR,A
                                           ; SOURCE LINE # 591
0154 7F09              MOV     R7,#09H
0156 120000      E     LCALL   _SPIM_WriteTxData
                                           ; SOURCE LINE # 592
0159 7F00              MOV     R7,#00H
015B 120000      E     LCALL   _SPIM_WriteTxData
                                           ; SOURCE LINE # 593
015E 7F11              MOV     R7,#011H
0160 120000      E     LCALL   _SPIM_WriteTxData
0163         ?C0108:
                                           ; SOURCE LINE # 594
0163 120000      E     LCALL   SPIM_ReadTxStatus
0166 EF                MOV     A,R7
0167 30E1F9            JNB     ACC.1,?C0108
016A         ?C0109:
                                           ; SOURCE LINE # 595
016A 7F0F              MOV     R7,#0FH
016C 7E00              MOV     R6,#00H
016E 120000      E     LCALL   _CyDelayUs
C51 COMPILER V9.51   TASK1                                                                 07/01/2014 18:20:50 PAGE 65  

                                           ; SOURCE LINE # 597
0171 90502C            MOV     DPTR,#0502CH
0174 E0                MOVX    A,@DPTR
0175 FF                MOV     R7,A
0176 EF                MOV     A,R7
0177 4401              ORL     A,#01H
0179 FF                MOV     R7,A
017A EF                MOV     A,R7
017B F0                MOVX    @DPTR,A
                                           ; SOURCE LINE # 599
017C 7F14              MOV     R7,#014H
017E 7E00              MOV     R6,#00H
0180 120000      E     LCALL   _CyDelayUs
                                           ; SOURCE LINE # 601
0183 90502C            MOV     DPTR,#0502CH
0186 E0                MOVX    A,@DPTR
0187 FF                MOV     R7,A
0188 EF                MOV     A,R7
0189 54FE              ANL     A,#0FEH
018B FF                MOV     R7,A
018C EF                MOV     A,R7
018D F0                MOVX    @DPTR,A
                                           ; SOURCE LINE # 603
018E 7F0F              MOV     R7,#0FH
0190 120000      E     LCALL   _SPIM_WriteTxData
                                           ; SOURCE LINE # 604
0193 7F00              MOV     R7,#00H
0195 120000      E     LCALL   _SPIM_WriteTxData
                                           ; SOURCE LINE # 605
0198 7F00              MOV     R7,#00H
019A 120000      E     LCALL   _SPIM_WriteTxData
019D         ?C0110:
                                           ; SOURCE LINE # 606
019D 120000      E     LCALL   SPIM_ReadTxStatus
01A0 EF                MOV     A,R7
01A1 30E1F9            JNB     ACC.1,?C0110
01A4         ?C0111:
                                           ; SOURCE LINE # 607
01A4 7F0F              MOV     R7,#0FH
01A6 7E00              MOV     R6,#00H
01A8 120000      E     LCALL   _CyDelayUs
                                           ; SOURCE LINE # 609
01AB 90502C            MOV     DPTR,#0502CH
01AE E0                MOVX    A,@DPTR
01AF FF                MOV     R7,A
01B0 EF                MOV     A,R7
01B1 4401              ORL     A,#01H
01B3 FF                MOV     R7,A
01B4 EF                MOV     A,R7
01B5 F0                MOVX    @DPTR,A
                                           ; SOURCE LINE # 610
01B6 020000      R     LJMP    ?C0112
01B9         ?C0099:
                                           ; SOURCE LINE # 611
01B9 900000      R     MOV     DPTR,#val_r
01BC E0                MOVX    A,@DPTR
01BD FE                MOV     R6,A
01BE A3                INC     DPTR
01BF E0                MOVX    A,@DPTR
01C0 FF                MOV     R7,A
01C1 C3                CLR     C
01C2 EF                MOV     A,R7
C51 COMPILER V9.51   TASK1                                                                 07/01/2014 18:20:50 PAGE 66  

01C3 9410              SUBB    A,#010H
01C5 EE                MOV     A,R6
01C6 6480              XRL     A,#080H
01C8 9480              SUBB    A,#080H
01CA 5003              JNC     $ + 5H
01CC 020000      R     LJMP    ?C0113
01CF 900000      R     MOV     DPTR,#val_r
01D2 E0                MOVX    A,@DPTR
01D3 FE                MOV     R6,A
01D4 A3                INC     DPTR
01D5 E0                MOVX    A,@DPTR
01D6 FF                MOV     R7,A
01D7 D3                SETB    C
01D8 EF                MOV     A,R7
01D9 941F              SUBB    A,#01FH
01DB EE                MOV     A,R6
01DC 6480              XRL     A,#080H
01DE 9480              SUBB    A,#080H
01E0 4003              JC      $ + 5H
01E2 020000      R     LJMP    ?C0113
                                           ; SOURCE LINE # 612
                                           ; SOURCE LINE # 613
01E5 900000      R     MOV     DPTR,#val_r
01E8 74FF              MOV     A,#0FFH
01EA 75F0F0            MOV     B,#0F0H
01ED 120000      E     LCALL   ?C?IILDX
                                           ; SOURCE LINE # 614
01F0 900000      R     MOV     DPTR,#val_r
01F3 E0                MOVX    A,@DPTR
01F4 FE                MOV     R6,A
01F5 A3                INC     DPTR
01F6 E0                MOVX    A,@DPTR
01F7 FF                MOV     R7,A
01F8 7401              MOV     A,#01H
01FA 7E00              MOV     R6,#00H
01FC A807              MOV     R0,AR7
01FE 08                INC     R0
01FF 8005              SJMP    ?C0425
0201         ?C0424:
0201 C3                CLR     C
0202 33                RLC     A
0203 CE                XCH     A,R6
0204 33                RLC     A
0205 CE                XCH     A,R6
0206         ?C0425:
0206 D8F9              DJNZ    R0,?C0424
0208 FF                MOV     R7,A
0209 900000      R     MOV     DPTR,#temp
020C EE                MOV     A,R6
020D F0                MOVX    @DPTR,A
020E A3                INC     DPTR
020F EF                MOV     A,R7
0210 F0                MOVX    @DPTR,A
                                           ; SOURCE LINE # 615
0211 900000      R     MOV     DPTR,#temp
0214 E0                MOVX    A,@DPTR
0215 FE                MOV     R6,A
0216 A3                INC     DPTR
0217 E0                MOVX    A,@DPTR
0218 FF                MOV     R7,A
0219 EE                MOV     A,R6
021A FF                MOV     R7,A
C51 COMPILER V9.51   TASK1                                                                 07/01/2014 18:20:50 PAGE 67  

021B 7E00              MOV     R6,#00H
021D 900000      R     MOV     DPTR,#temp1
0220 EF                MOV     A,R7
0221 F0                MOVX    @DPTR,A
                                           ; SOURCE LINE # 617
0222 90502C            MOV     DPTR,#0502CH
0225 E0                MOVX    A,@DPTR
0226 FF                MOV     R7,A
0227 EF                MOV     A,R7
0228 54FE              ANL     A,#0FEH
022A FF                MOV     R7,A
022B EF                MOV     A,R7
022C F0                MOVX    @DPTR,A
                                           ; SOURCE LINE # 619
022D 7F04              MOV     R7,#04H
022F 120000      E     LCALL   _SPIM_WriteTxData
                                           ; SOURCE LINE # 620
0232 7F00              MOV     R7,#00H
0234 120000      E     LCALL   _SPIM_WriteTxData
                                           ; SOURCE LINE # 621
0237 7F00              MOV     R7,#00H
0239 120000      E     LCALL   _SPIM_WriteTxData
023C         ?C0114:
                                           ; SOURCE LINE # 622
023C 120000      E     LCALL   SPIM_ReadTxStatus
023F EF                MOV     A,R7
0240 30E1F9            JNB     ACC.1,?C0114
0243         ?C0115:
                                           ; SOURCE LINE # 624
0243 7F0F              MOV     R7,#0FH
0245 7E00              MOV     R6,#00H
0247 120000      E     LCALL   _CyDelayUs
                                           ; SOURCE LINE # 626
024A 90502C            MOV     DPTR,#0502CH
024D E0                MOVX    A,@DPTR
024E FF                MOV     R7,A
024F EF                MOV     A,R7
0250 4401              ORL     A,#01H
0252 FF                MOV     R7,A
0253 EF                MOV     A,R7
0254 F0                MOVX    @DPTR,A
                                           ; SOURCE LINE # 628
0255 7F14              MOV     R7,#014H
0257 7E00              MOV     R6,#00H
0259 120000      E     LCALL   _CyDelayUs
                                           ; SOURCE LINE # 630
025C 90502C            MOV     DPTR,#0502CH
025F E0                MOVX    A,@DPTR
0260 FF                MOV     R7,A
0261 EF                MOV     A,R7
0262 54FE              ANL     A,#0FEH
0264 FF                MOV     R7,A
0265 EF                MOV     A,R7
0266 F0                MOVX    @DPTR,A
                                           ; SOURCE LINE # 632
0267 7F05              MOV     R7,#05H
0269 120000      E     LCALL   _SPIM_WriteTxData
                                           ; SOURCE LINE # 633
026C 900000      R     MOV     DPTR,#temp1
026F E0                MOVX    A,@DPTR
0270 FF                MOV     R7,A
0271 120000      E     LCALL   _SPIM_WriteTxData
C51 COMPILER V9.51   TASK1                                                                 07/01/2014 18:20:50 PAGE 68  

                                           ; SOURCE LINE # 634
0274 900000      R     MOV     DPTR,#temp
0277 E0                MOVX    A,@DPTR
0278 FE                MOV     R6,A
0279 A3                INC     DPTR
027A E0                MOVX    A,@DPTR
027B FF                MOV     R7,A
027C 120000      E     LCALL   _SPIM_WriteTxData
027F         ?C0116:
                                           ; SOURCE LINE # 635
027F 120000      E     LCALL   SPIM_ReadTxStatus
0282 EF                MOV     A,R7
0283 30E1F9            JNB     ACC.1,?C0116
0286         ?C0117:
                                           ; SOURCE LINE # 637
0286 7F0F              MOV     R7,#0FH
0288 7E00              MOV     R6,#00H
028A 120000      E     LCALL   _CyDelayUs
                                           ; SOURCE LINE # 639
028D 90502C            MOV     DPTR,#0502CH
0290 E0                MOVX    A,@DPTR
0291 FF                MOV     R7,A
0292 EF                MOV     A,R7
0293 4401              ORL     A,#01H
0295 FF                MOV     R7,A
0296 EF                MOV     A,R7
0297 F0                MOVX    @DPTR,A
                                           ; SOURCE LINE # 641
0298 7F14              MOV     R7,#014H
029A 7E00              MOV     R6,#00H
029C 120000      E     LCALL   _CyDelayUs
                                           ; SOURCE LINE # 643
029F 90502C            MOV     DPTR,#0502CH
02A2 E0                MOVX    A,@DPTR
02A3 FF                MOV     R7,A
02A4 EF                MOV     A,R7
02A5 54FE              ANL     A,#0FEH
02A7 FF                MOV     R7,A
02A8 EF                MOV     A,R7
02A9 F0                MOVX    @DPTR,A
                                           ; SOURCE LINE # 645
02AA 7F06              MOV     R7,#06H
02AC 120000      E     LCALL   _SPIM_WriteTxData
                                           ; SOURCE LINE # 646
02AF 7F00              MOV     R7,#00H
02B1 120000      E     LCALL   _SPIM_WriteTxData
                                           ; SOURCE LINE # 647
02B4 7F00              MOV     R7,#00H
02B6 120000      E     LCALL   _SPIM_WriteTxData
02B9         ?C0118:
                                           ; SOURCE LINE # 648
02B9 120000      E     LCALL   SPIM_ReadTxStatus
02BC EF                MOV     A,R7
02BD 30E1F9            JNB     ACC.1,?C0118
02C0         ?C0119:
                                           ; SOURCE LINE # 650
02C0 7F0F              MOV     R7,#0FH
02C2 7E00              MOV     R6,#00H
02C4 120000      E     LCALL   _CyDelayUs
                                           ; SOURCE LINE # 652
02C7 90502C            MOV     DPTR,#0502CH
02CA E0                MOVX    A,@DPTR
C51 COMPILER V9.51   TASK1                                                                 07/01/2014 18:20:50 PAGE 69  

02CB FF                MOV     R7,A
02CC EF                MOV     A,R7
02CD 4401              ORL     A,#01H
02CF FF                MOV     R7,A
02D0 EF                MOV     A,R7
02D1 F0                MOVX    @DPTR,A
                                           ; SOURCE LINE # 654
02D2 7F14              MOV     R7,#014H
02D4 7E00              MOV     R6,#00H
02D6 120000      E     LCALL   _CyDelayUs
                                           ; SOURCE LINE # 656
02D9 90502C            MOV     DPTR,#0502CH
02DC E0                MOVX    A,@DPTR
02DD FF                MOV     R7,A
02DE EF                MOV     A,R7
02DF 54FE              ANL     A,#0FEH
02E1 FF                MOV     R7,A
02E2 EF                MOV     A,R7
02E3 F0                MOVX    @DPTR,A
                                           ; SOURCE LINE # 658
02E4 7F07              MOV     R7,#07H
02E6 120000      E     LCALL   _SPIM_WriteTxData
                                           ; SOURCE LINE # 659
02E9 7F00              MOV     R7,#00H
02EB 120000      E     LCALL   _SPIM_WriteTxData
                                           ; SOURCE LINE # 660
02EE 7F00              MOV     R7,#00H
02F0 120000      E     LCALL   _SPIM_WriteTxData
02F3         ?C0120:
                                           ; SOURCE LINE # 661
02F3 120000      E     LCALL   SPIM_ReadTxStatus
02F6 EF                MOV     A,R7
02F7 30E1F9            JNB     ACC.1,?C0120
02FA         ?C0121:
                                           ; SOURCE LINE # 663
02FA 7F0F              MOV     R7,#0FH
02FC 7E00              MOV     R6,#00H
02FE 120000      E     LCALL   _CyDelayUs
                                           ; SOURCE LINE # 665
0301 90502C            MOV     DPTR,#0502CH
0304 E0                MOVX    A,@DPTR
0305 FF                MOV     R7,A
0306 EF                MOV     A,R7
0307 4401              ORL     A,#01H
0309 FF                MOV     R7,A
030A EF                MOV     A,R7
030B F0                MOVX    @DPTR,A
                                           ; SOURCE LINE # 667
030C 7F14              MOV     R7,#014H
030E 7E00              MOV     R6,#00H
0310 120000      E     LCALL   _CyDelayUs
                                           ; SOURCE LINE # 669
0313 90502C            MOV     DPTR,#0502CH
0316 E0                MOVX    A,@DPTR
0317 FF                MOV     R7,A
0318 EF                MOV     A,R7
0319 54FE              ANL     A,#0FEH
031B FF                MOV     R7,A
031C EF                MOV     A,R7
031D F0                MOVX    @DPTR,A
                                           ; SOURCE LINE # 671
031E 7F09              MOV     R7,#09H
C51 COMPILER V9.51   TASK1                                                                 07/01/2014 18:20:50 PAGE 70  

0320 120000      E     LCALL   _SPIM_WriteTxData
                                           ; SOURCE LINE # 672
0323 7F00              MOV     R7,#00H
0325 120000      E     LCALL   _SPIM_WriteTxData
                                           ; SOURCE LINE # 673
0328 7F12              MOV     R7,#012H
032A 120000      E     LCALL   _SPIM_WriteTxData
032D         ?C0122:
                                           ; SOURCE LINE # 674
032D 120000      E     LCALL   SPIM_ReadTxStatus
0330 EF                MOV     A,R7
0331 30E1F9            JNB     ACC.1,?C0122
0334         ?C0123:
                                           ; SOURCE LINE # 676
0334 7F0F              MOV     R7,#0FH
0336 7E00              MOV     R6,#00H
0338 120000      E     LCALL   _CyDelayUs
                                           ; SOURCE LINE # 678
033B 90502C            MOV     DPTR,#0502CH
033E E0                MOVX    A,@DPTR
033F FF                MOV     R7,A
0340 EF                MOV     A,R7
0341 4401              ORL     A,#01H
0343 FF                MOV     R7,A
0344 EF                MOV     A,R7
0345 F0                MOVX    @DPTR,A
                                           ; SOURCE LINE # 680
0346 7F14              MOV     R7,#014H
0348 7E00              MOV     R6,#00H
034A 120000      E     LCALL   _CyDelayUs
                                           ; SOURCE LINE # 682
034D 90502C            MOV     DPTR,#0502CH
0350 E0                MOVX    A,@DPTR
0351 FF                MOV     R7,A
0352 EF                MOV     A,R7
0353 54FE              ANL     A,#0FEH
0355 FF                MOV     R7,A
0356 EF                MOV     A,R7
0357 F0                MOVX    @DPTR,A
                                           ; SOURCE LINE # 684
0358 7F0F              MOV     R7,#0FH
035A 120000      E     LCALL   _SPIM_WriteTxData
                                           ; SOURCE LINE # 685
035D 7F00              MOV     R7,#00H
035F 120000      E     LCALL   _SPIM_WriteTxData
                                           ; SOURCE LINE # 686
0362 7F00              MOV     R7,#00H
0364 120000      E     LCALL   _SPIM_WriteTxData
0367         ?C0124:
                                           ; SOURCE LINE # 687
0367 120000      E     LCALL   SPIM_ReadTxStatus
036A EF                MOV     A,R7
036B 30E1F9            JNB     ACC.1,?C0124
036E         ?C0125:
                                           ; SOURCE LINE # 689
036E 7F0F              MOV     R7,#0FH
0370 7E00              MOV     R6,#00H
0372 120000      E     LCALL   _CyDelayUs
                                           ; SOURCE LINE # 691
0375 90502C            MOV     DPTR,#0502CH
0378 E0                MOVX    A,@DPTR
0379 FF                MOV     R7,A
C51 COMPILER V9.51   TASK1                                                                 07/01/2014 18:20:50 PAGE 71  

037A EF                MOV     A,R7
037B 4401              ORL     A,#01H
037D FF                MOV     R7,A
037E EF                MOV     A,R7
037F F0                MOVX    @DPTR,A
                                           ; SOURCE LINE # 692
0380 020000      R     LJMP    ?C0112
0383         ?C0113:
                                           ; SOURCE LINE # 693
0383 900000      R     MOV     DPTR,#val_r
0386 E0                MOVX    A,@DPTR
0387 FE                MOV     R6,A
0388 A3                INC     DPTR
0389 E0                MOVX    A,@DPTR
038A FF                MOV     R7,A
038B C3                CLR     C
038C EF                MOV     A,R7
038D 9420              SUBB    A,#020H
038F EE                MOV     A,R6
0390 6480              XRL     A,#080H
0392 9480              SUBB    A,#080H
0394 5003              JNC     $ + 5H
0396 020000      R     LJMP    ?C0127
0399 900000      R     MOV     DPTR,#val_r
039C E0                MOVX    A,@DPTR
039D FE                MOV     R6,A
039E A3                INC     DPTR
039F E0                MOVX    A,@DPTR
03A0 FF                MOV     R7,A
03A1 D3                SETB    C
03A2 EF                MOV     A,R7
03A3 942F              SUBB    A,#02FH
03A5 EE                MOV     A,R6
03A6 6480              XRL     A,#080H
03A8 9480              SUBB    A,#080H
03AA 4003              JC      $ + 5H
03AC 020000      R     LJMP    ?C0127
                                           ; SOURCE LINE # 694
                                           ; SOURCE LINE # 695
03AF 900000      R     MOV     DPTR,#val_r
03B2 74FF              MOV     A,#0FFH
03B4 75F0E0            MOV     B,#0E0H
03B7 120000      E     LCALL   ?C?IILDX
                                           ; SOURCE LINE # 696
03BA 900000      R     MOV     DPTR,#val_r
03BD E0                MOVX    A,@DPTR
03BE FE                MOV     R6,A
03BF A3                INC     DPTR
03C0 E0                MOVX    A,@DPTR
03C1 FF                MOV     R7,A
03C2 7401              MOV     A,#01H
03C4 7E00              MOV     R6,#00H
03C6 A807              MOV     R0,AR7
03C8 08                INC     R0
03C9 8005              SJMP    ?C0427
03CB         ?C0426:
03CB C3                CLR     C
03CC 33                RLC     A
03CD CE                XCH     A,R6
03CE 33                RLC     A
03CF CE                XCH     A,R6
03D0         ?C0427:
C51 COMPILER V9.51   TASK1                                                                 07/01/2014 18:20:50 PAGE 72  

03D0 D8F9              DJNZ    R0,?C0426
03D2 FF                MOV     R7,A
03D3 900000      R     MOV     DPTR,#temp
03D6 EE                MOV     A,R6
03D7 F0                MOVX    @DPTR,A
03D8 A3                INC     DPTR
03D9 EF                MOV     A,R7
03DA F0                MOVX    @DPTR,A
                                           ; SOURCE LINE # 697
03DB 900000      R     MOV     DPTR,#temp
03DE E0                MOVX    A,@DPTR
03DF FE                MOV     R6,A
03E0 A3                INC     DPTR
03E1 E0                MOVX    A,@DPTR
03E2 FF                MOV     R7,A
03E3 EE                MOV     A,R6
03E4 FF                MOV     R7,A
03E5 7E00              MOV     R6,#00H
03E7 900000      R     MOV     DPTR,#temp1
03EA EF                MOV     A,R7
03EB F0                MOVX    @DPTR,A
                                           ; SOURCE LINE # 699
03EC 90502C            MOV     DPTR,#0502CH
03EF E0                MOVX    A,@DPTR
03F0 FF                MOV     R7,A
03F1 EF                MOV     A,R7
03F2 54FE              ANL     A,#0FEH
03F4 FF                MOV     R7,A
03F5 EF                MOV     A,R7
03F6 F0                MOVX    @DPTR,A
                                           ; SOURCE LINE # 701
03F7 7F04              MOV     R7,#04H
03F9 120000      E     LCALL   _SPIM_WriteTxData
                                           ; SOURCE LINE # 702
03FC 7F00              MOV     R7,#00H
03FE 120000      E     LCALL   _SPIM_WriteTxData
                                           ; SOURCE LINE # 703
0401 7F00              MOV     R7,#00H
0403 120000      E     LCALL   _SPIM_WriteTxData
0406         ?C0128:
                                           ; SOURCE LINE # 704
0406 120000      E     LCALL   SPIM_ReadTxStatus
0409 EF                MOV     A,R7
040A 30E1F9            JNB     ACC.1,?C0128
040D         ?C0129:
                                           ; SOURCE LINE # 706
040D 7F0F              MOV     R7,#0FH
040F 7E00              MOV     R6,#00H
0411 120000      E     LCALL   _CyDelayUs
                                           ; SOURCE LINE # 708
0414 90502C            MOV     DPTR,#0502CH
0417 E0                MOVX    A,@DPTR
0418 FF                MOV     R7,A
0419 EF                MOV     A,R7
041A 4401              ORL     A,#01H
041C FF                MOV     R7,A
041D EF                MOV     A,R7
041E F0                MOVX    @DPTR,A
                                           ; SOURCE LINE # 710
041F 7F14              MOV     R7,#014H
0421 7E00              MOV     R6,#00H
0423 120000      E     LCALL   _CyDelayUs
C51 COMPILER V9.51   TASK1                                                                 07/01/2014 18:20:50 PAGE 73  

                                           ; SOURCE LINE # 712
0426 90502C            MOV     DPTR,#0502CH
0429 E0                MOVX    A,@DPTR
042A FF                MOV     R7,A
042B EF                MOV     A,R7
042C 54FE              ANL     A,#0FEH
042E FF                MOV     R7,A
042F EF                MOV     A,R7
0430 F0                MOVX    @DPTR,A
                                           ; SOURCE LINE # 714
0431 7F05              MOV     R7,#05H
0433 120000      E     LCALL   _SPIM_WriteTxData
                                           ; SOURCE LINE # 715
0436 7F00              MOV     R7,#00H
0438 120000      E     LCALL   _SPIM_WriteTxData
                                           ; SOURCE LINE # 716
043B 7F00              MOV     R7,#00H
043D 120000      E     LCALL   _SPIM_WriteTxData
0440         ?C0130:
                                           ; SOURCE LINE # 717
0440 120000      E     LCALL   SPIM_ReadTxStatus
0443 EF                MOV     A,R7
0444 30E1F9            JNB     ACC.1,?C0130
0447         ?C0131:
                                           ; SOURCE LINE # 719
0447 7F0F              MOV     R7,#0FH
0449 7E00              MOV     R6,#00H
044B 120000      E     LCALL   _CyDelayUs
                                           ; SOURCE LINE # 721
044E 90502C            MOV     DPTR,#0502CH
0451 E0                MOVX    A,@DPTR
0452 FF                MOV     R7,A
0453 EF                MOV     A,R7
0454 4401              ORL     A,#01H
0456 FF                MOV     R7,A
0457 EF                MOV     A,R7
0458 F0                MOVX    @DPTR,A
                                           ; SOURCE LINE # 723
0459 7F14              MOV     R7,#014H
045B 7E00              MOV     R6,#00H
045D 120000      E     LCALL   _CyDelayUs
                                           ; SOURCE LINE # 725
0460 90502C            MOV     DPTR,#0502CH
0463 E0                MOVX    A,@DPTR
0464 FF                MOV     R7,A
0465 EF                MOV     A,R7
0466 54FE              ANL     A,#0FEH
0468 FF                MOV     R7,A
0469 EF                MOV     A,R7
046A F0                MOVX    @DPTR,A
                                           ; SOURCE LINE # 727
046B 7F06              MOV     R7,#06H
046D 120000      E     LCALL   _SPIM_WriteTxData
                                           ; SOURCE LINE # 728
0470 900000      R     MOV     DPTR,#temp1
0473 E0                MOVX    A,@DPTR
0474 FF                MOV     R7,A
0475 120000      E     LCALL   _SPIM_WriteTxData
                                           ; SOURCE LINE # 729
0478 900000      R     MOV     DPTR,#temp
047B E0                MOVX    A,@DPTR
047C FE                MOV     R6,A
C51 COMPILER V9.51   TASK1                                                                 07/01/2014 18:20:50 PAGE 74  

047D A3                INC     DPTR
047E E0                MOVX    A,@DPTR
047F FF                MOV     R7,A
0480 120000      E     LCALL   _SPIM_WriteTxData
0483         ?C0132:
                                           ; SOURCE LINE # 730
0483 120000      E     LCALL   SPIM_ReadTxStatus
0486 EF                MOV     A,R7
0487 30E1F9            JNB     ACC.1,?C0132
048A         ?C0133:
                                           ; SOURCE LINE # 732
048A 7F0F              MOV     R7,#0FH
048C 7E00              MOV     R6,#00H
048E 120000      E     LCALL   _CyDelayUs
                                           ; SOURCE LINE # 734
0491 90502C            MOV     DPTR,#0502CH
0494 E0                MOVX    A,@DPTR
0495 FF                MOV     R7,A
0496 EF                MOV     A,R7
0497 4401              ORL     A,#01H
0499 FF                MOV     R7,A
049A EF                MOV     A,R7
049B F0                MOVX    @DPTR,A
                                           ; SOURCE LINE # 736
049C 7F14              MOV     R7,#014H
049E 7E00              MOV     R6,#00H
04A0 120000      E     LCALL   _CyDelayUs
                                           ; SOURCE LINE # 738
04A3 90502C            MOV     DPTR,#0502CH
04A6 E0                MOVX    A,@DPTR
04A7 FF                MOV     R7,A
04A8 EF                MOV     A,R7
04A9 54FE              ANL     A,#0FEH
04AB FF                MOV     R7,A
04AC EF                MOV     A,R7
04AD F0                MOVX    @DPTR,A
                                           ; SOURCE LINE # 740
04AE 7F07              MOV     R7,#07H
04B0 120000      E     LCALL   _SPIM_WriteTxData
                                           ; SOURCE LINE # 741
04B3 7F00              MOV     R7,#00H
04B5 120000      E     LCALL   _SPIM_WriteTxData
                                           ; SOURCE LINE # 742
04B8 7F00              MOV     R7,#00H
04BA 120000      E     LCALL   _SPIM_WriteTxData
04BD         ?C0134:
                                           ; SOURCE LINE # 743
04BD 120000      E     LCALL   SPIM_ReadTxStatus
04C0 EF                MOV     A,R7
04C1 30E1F9            JNB     ACC.1,?C0134
04C4         ?C0135:
                                           ; SOURCE LINE # 745
04C4 7F0F              MOV     R7,#0FH
04C6 7E00              MOV     R6,#00H
04C8 120000      E     LCALL   _CyDelayUs
                                           ; SOURCE LINE # 747
04CB 90502C            MOV     DPTR,#0502CH
04CE E0                MOVX    A,@DPTR
04CF FF                MOV     R7,A
04D0 EF                MOV     A,R7
04D1 4401              ORL     A,#01H
04D3 FF                MOV     R7,A
C51 COMPILER V9.51   TASK1                                                                 07/01/2014 18:20:50 PAGE 75  

04D4 EF                MOV     A,R7
04D5 F0                MOVX    @DPTR,A
                                           ; SOURCE LINE # 749
04D6 7F14              MOV     R7,#014H
04D8 7E00              MOV     R6,#00H
04DA 120000      E     LCALL   _CyDelayUs
                                           ; SOURCE LINE # 751
04DD 90502C            MOV     DPTR,#0502CH
04E0 E0                MOVX    A,@DPTR
04E1 FF                MOV     R7,A
04E2 EF                MOV     A,R7
04E3 54FE              ANL     A,#0FEH
04E5 FF                MOV     R7,A
04E6 EF                MOV     A,R7
04E7 F0                MOVX    @DPTR,A
                                           ; SOURCE LINE # 753
04E8 7F09              MOV     R7,#09H
04EA 120000      E     LCALL   _SPIM_WriteTxData
                                           ; SOURCE LINE # 754
04ED 7F00              MOV     R7,#00H
04EF 120000      E     LCALL   _SPIM_WriteTxData
                                           ; SOURCE LINE # 755
04F2 7F14              MOV     R7,#014H
04F4 120000      E     LCALL   _SPIM_WriteTxData
04F7         ?C0136:
                                           ; SOURCE LINE # 756
04F7 120000      E     LCALL   SPIM_ReadTxStatus
04FA EF                MOV     A,R7
04FB 30E1F9            JNB     ACC.1,?C0136
04FE         ?C0137:
                                           ; SOURCE LINE # 758
04FE 7F0F              MOV     R7,#0FH
0500 7E00              MOV     R6,#00H
0502 120000      E     LCALL   _CyDelayUs
                                           ; SOURCE LINE # 760
0505 90502C            MOV     DPTR,#0502CH
0508 E0                MOVX    A,@DPTR
0509 FF                MOV     R7,A
050A EF                MOV     A,R7
050B 4401              ORL     A,#01H
050D FF                MOV     R7,A
050E EF                MOV     A,R7
050F F0                MOVX    @DPTR,A
                                           ; SOURCE LINE # 762
0510 7F14              MOV     R7,#014H
0512 7E00              MOV     R6,#00H
0514 120000      E     LCALL   _CyDelayUs
                                           ; SOURCE LINE # 764
0517 90502C            MOV     DPTR,#0502CH
051A E0                MOVX    A,@DPTR
051B FF                MOV     R7,A
051C EF                MOV     A,R7
051D 54FE              ANL     A,#0FEH
051F FF                MOV     R7,A
0520 EF                MOV     A,R7
0521 F0                MOVX    @DPTR,A
                                           ; SOURCE LINE # 766
0522 7F0F              MOV     R7,#0FH
0524 120000      E     LCALL   _SPIM_WriteTxData
                                           ; SOURCE LINE # 767
0527 7F00              MOV     R7,#00H
0529 120000      E     LCALL   _SPIM_WriteTxData
C51 COMPILER V9.51   TASK1                                                                 07/01/2014 18:20:50 PAGE 76  

                                           ; SOURCE LINE # 768
052C 7F00              MOV     R7,#00H
052E 120000      E     LCALL   _SPIM_WriteTxData
0531         ?C0138:
                                           ; SOURCE LINE # 769
0531 120000      E     LCALL   SPIM_ReadTxStatus
0534 EF                MOV     A,R7
0535 30E1F9            JNB     ACC.1,?C0138
0538         ?C0139:
                                           ; SOURCE LINE # 770
0538 7F0F              MOV     R7,#0FH
053A 7E00              MOV     R6,#00H
053C 120000      E     LCALL   _CyDelayUs
                                           ; SOURCE LINE # 772
053F 90502C            MOV     DPTR,#0502CH
0542 E0                MOVX    A,@DPTR
0543 FF                MOV     R7,A
0544 EF                MOV     A,R7
0545 4401              ORL     A,#01H
0547 FF                MOV     R7,A
0548 EF                MOV     A,R7
0549 F0                MOVX    @DPTR,A
                                           ; SOURCE LINE # 773
054A 020000      R     LJMP    ?C0112
054D         ?C0127:
                                           ; SOURCE LINE # 774
054D 900000      R     MOV     DPTR,#val_r
0550 E0                MOVX    A,@DPTR
0551 FE                MOV     R6,A
0552 A3                INC     DPTR
0553 E0                MOVX    A,@DPTR
0554 FF                MOV     R7,A
0555 C3                CLR     C
0556 EF                MOV     A,R7
0557 9430              SUBB    A,#030H
0559 EE                MOV     A,R6
055A 6480              XRL     A,#080H
055C 9480              SUBB    A,#080H
055E 5003              JNC     $ + 5H
0560 020000      R     LJMP    ?C0141
0563 900000      R     MOV     DPTR,#val_r
0566 E0                MOVX    A,@DPTR
0567 FE                MOV     R6,A
0568 A3                INC     DPTR
0569 E0                MOVX    A,@DPTR
056A FF                MOV     R7,A
056B D3                SETB    C
056C EF                MOV     A,R7
056D 943F              SUBB    A,#03FH
056F EE                MOV     A,R6
0570 6480              XRL     A,#080H
0572 9480              SUBB    A,#080H
0574 4003              JC      $ + 5H
0576 020000      R     LJMP    ?C0141
                                           ; SOURCE LINE # 775
                                           ; SOURCE LINE # 776
0579 900000      R     MOV     DPTR,#val_r
057C 74FF              MOV     A,#0FFH
057E 75F0D0            MOV     B,#0D0H
0581 120000      E     LCALL   ?C?IILDX
                                           ; SOURCE LINE # 777
0584 900000      R     MOV     DPTR,#val_r
C51 COMPILER V9.51   TASK1                                                                 07/01/2014 18:20:50 PAGE 77  

0587 E0                MOVX    A,@DPTR
0588 FE                MOV     R6,A
0589 A3                INC     DPTR
058A E0                MOVX    A,@DPTR
058B FF                MOV     R7,A
058C 7401              MOV     A,#01H
058E 7E00              MOV     R6,#00H
0590 A807              MOV     R0,AR7
0592 08                INC     R0
0593 8005              SJMP    ?C0429
0595         ?C0428:
0595 C3                CLR     C
0596 33                RLC     A
0597 CE                XCH     A,R6
0598 33                RLC     A
0599 CE                XCH     A,R6
059A         ?C0429:
059A D8F9              DJNZ    R0,?C0428
059C FF                MOV     R7,A
059D 900000      R     MOV     DPTR,#temp
05A0 EE                MOV     A,R6
05A1 F0                MOVX    @DPTR,A
05A2 A3                INC     DPTR
05A3 EF                MOV     A,R7
05A4 F0                MOVX    @DPTR,A
                                           ; SOURCE LINE # 778
05A5 900000      R     MOV     DPTR,#temp
05A8 E0                MOVX    A,@DPTR
05A9 FE                MOV     R6,A
05AA A3                INC     DPTR
05AB E0                MOVX    A,@DPTR
05AC FF                MOV     R7,A
05AD EE                MOV     A,R6
05AE FF                MOV     R7,A
05AF 7E00              MOV     R6,#00H
05B1 900000      R     MOV     DPTR,#temp1
05B4 EF                MOV     A,R7
05B5 F0                MOVX    @DPTR,A
                                           ; SOURCE LINE # 780
05B6 90502C            MOV     DPTR,#0502CH
05B9 E0                MOVX    A,@DPTR
05BA FF                MOV     R7,A
05BB EF                MOV     A,R7
05BC 54FE              ANL     A,#0FEH
05BE FF                MOV     R7,A
05BF EF                MOV     A,R7
05C0 F0                MOVX    @DPTR,A
                                           ; SOURCE LINE # 782
05C1 7F04              MOV     R7,#04H
05C3 120000      E     LCALL   _SPIM_WriteTxData
                                           ; SOURCE LINE # 783
05C6 7F00              MOV     R7,#00H
05C8 120000      E     LCALL   _SPIM_WriteTxData
                                           ; SOURCE LINE # 784
05CB 7F00              MOV     R7,#00H
05CD 120000      E     LCALL   _SPIM_WriteTxData
05D0         ?C0142:
                                           ; SOURCE LINE # 785
05D0 120000      E     LCALL   SPIM_ReadTxStatus
05D3 EF                MOV     A,R7
05D4 30E1F9            JNB     ACC.1,?C0142
05D7         ?C0143:
C51 COMPILER V9.51   TASK1                                                                 07/01/2014 18:20:50 PAGE 78  

                                           ; SOURCE LINE # 787
05D7 7F0F              MOV     R7,#0FH
05D9 7E00              MOV     R6,#00H
05DB 120000      E     LCALL   _CyDelayUs
                                           ; SOURCE LINE # 789
05DE 90502C            MOV     DPTR,#0502CH
05E1 E0                MOVX    A,@DPTR
05E2 FF                MOV     R7,A
05E3 EF                MOV     A,R7
05E4 4401              ORL     A,#01H
05E6 FF                MOV     R7,A
05E7 EF                MOV     A,R7
05E8 F0                MOVX    @DPTR,A
                                           ; SOURCE LINE # 791
05E9 7F14              MOV     R7,#014H
05EB 7E00              MOV     R6,#00H
05ED 120000      E     LCALL   _CyDelayUs
                                           ; SOURCE LINE # 793
05F0 90502C            MOV     DPTR,#0502CH
05F3 E0                MOVX    A,@DPTR
05F4 FF                MOV     R7,A
05F5 EF                MOV     A,R7
05F6 54FE              ANL     A,#0FEH
05F8 FF                MOV     R7,A
05F9 EF                MOV     A,R7
05FA F0                MOVX    @DPTR,A
                                           ; SOURCE LINE # 795
05FB 7F05              MOV     R7,#05H
05FD 120000      E     LCALL   _SPIM_WriteTxData
                                           ; SOURCE LINE # 796
0600 7F00              MOV     R7,#00H
0602 120000      E     LCALL   _SPIM_WriteTxData
                                           ; SOURCE LINE # 797
0605 7F00              MOV     R7,#00H
0607 120000      E     LCALL   _SPIM_WriteTxData
060A         ?C0144:
                                           ; SOURCE LINE # 798
060A 120000      E     LCALL   SPIM_ReadTxStatus
060D EF                MOV     A,R7
060E 30E1F9            JNB     ACC.1,?C0144
0611         ?C0145:
                                           ; SOURCE LINE # 800
0611 7F0F              MOV     R7,#0FH
0613 7E00              MOV     R6,#00H
0615 120000      E     LCALL   _CyDelayUs
                                           ; SOURCE LINE # 802
0618 90502C            MOV     DPTR,#0502CH
061B E0                MOVX    A,@DPTR
061C FF                MOV     R7,A
061D EF                MOV     A,R7
061E 4401              ORL     A,#01H
0620 FF                MOV     R7,A
0621 EF                MOV     A,R7
0622 F0                MOVX    @DPTR,A
                                           ; SOURCE LINE # 804
0623 7F14              MOV     R7,#014H
0625 7E00              MOV     R6,#00H
0627 120000      E     LCALL   _CyDelayUs
                                           ; SOURCE LINE # 806
062A 90502C            MOV     DPTR,#0502CH
062D E0                MOVX    A,@DPTR
062E FF                MOV     R7,A
C51 COMPILER V9.51   TASK1                                                                 07/01/2014 18:20:50 PAGE 79  

062F EF                MOV     A,R7
0630 54FE              ANL     A,#0FEH
0632 FF                MOV     R7,A
0633 EF                MOV     A,R7
0634 F0                MOVX    @DPTR,A
                                           ; SOURCE LINE # 808
0635 7F06              MOV     R7,#06H
0637 120000      E     LCALL   _SPIM_WriteTxData
                                           ; SOURCE LINE # 809
063A 7F00              MOV     R7,#00H
063C 120000      E     LCALL   _SPIM_WriteTxData
                                           ; SOURCE LINE # 810
063F 7F00              MOV     R7,#00H
0641 120000      E     LCALL   _SPIM_WriteTxData
0644         ?C0146:
                                           ; SOURCE LINE # 811
0644 120000      E     LCALL   SPIM_ReadTxStatus
0647 EF                MOV     A,R7
0648 30E1F9            JNB     ACC.1,?C0146
064B         ?C0147:
                                           ; SOURCE LINE # 813
064B 7F0F              MOV     R7,#0FH
064D 7E00              MOV     R6,#00H
064F 120000      E     LCALL   _CyDelayUs
                                           ; SOURCE LINE # 815
0652 90502C            MOV     DPTR,#0502CH
0655 E0                MOVX    A,@DPTR
0656 FF                MOV     R7,A
0657 EF                MOV     A,R7
0658 4401              ORL     A,#01H
065A FF                MOV     R7,A
065B EF                MOV     A,R7
065C F0                MOVX    @DPTR,A
                                           ; SOURCE LINE # 817
065D 7F14              MOV     R7,#014H
065F 7E00              MOV     R6,#00H
0661 120000      E     LCALL   _CyDelayUs
                                           ; SOURCE LINE # 819
0664 90502C            MOV     DPTR,#0502CH
0667 E0                MOVX    A,@DPTR
0668 FF                MOV     R7,A
0669 EF                MOV     A,R7
066A 54FE              ANL     A,#0FEH
066C FF                MOV     R7,A
066D EF                MOV     A,R7
066E F0                MOVX    @DPTR,A
                                           ; SOURCE LINE # 821
066F 7F07              MOV     R7,#07H
0671 120000      E     LCALL   _SPIM_WriteTxData
                                           ; SOURCE LINE # 822
0674 900000      R     MOV     DPTR,#temp1
0677 E0                MOVX    A,@DPTR
0678 FF                MOV     R7,A
0679 120000      E     LCALL   _SPIM_WriteTxData
                                           ; SOURCE LINE # 823
067C 900000      R     MOV     DPTR,#temp
067F E0                MOVX    A,@DPTR
0680 FE                MOV     R6,A
0681 A3                INC     DPTR
0682 E0                MOVX    A,@DPTR
0683 FF                MOV     R7,A
0684 120000      E     LCALL   _SPIM_WriteTxData
C51 COMPILER V9.51   TASK1                                                                 07/01/2014 18:20:50 PAGE 80  

0687         ?C0148:
                                           ; SOURCE LINE # 824
0687 120000      E     LCALL   SPIM_ReadTxStatus
068A EF                MOV     A,R7
068B 30E1F9            JNB     ACC.1,?C0148
068E         ?C0149:
                                           ; SOURCE LINE # 826
068E 7F0F              MOV     R7,#0FH
0690 7E00              MOV     R6,#00H
0692 120000      E     LCALL   _CyDelayUs
                                           ; SOURCE LINE # 828
0695 90502C            MOV     DPTR,#0502CH
0698 E0                MOVX    A,@DPTR
0699 FF                MOV     R7,A
069A EF                MOV     A,R7
069B 4401              ORL     A,#01H
069D FF                MOV     R7,A
069E EF                MOV     A,R7
069F F0                MOVX    @DPTR,A
                                           ; SOURCE LINE # 830
06A0 7F14              MOV     R7,#014H
06A2 7E00              MOV     R6,#00H
06A4 120000      E     LCALL   _CyDelayUs
                                           ; SOURCE LINE # 832
06A7 90502C            MOV     DPTR,#0502CH
06AA E0                MOVX    A,@DPTR
06AB FF                MOV     R7,A
06AC EF                MOV     A,R7
06AD 54FE              ANL     A,#0FEH
06AF FF                MOV     R7,A
06B0 EF                MOV     A,R7
06B1 F0                MOVX    @DPTR,A
                                           ; SOURCE LINE # 834
06B2 7F09              MOV     R7,#09H
06B4 120000      E     LCALL   _SPIM_WriteTxData
                                           ; SOURCE LINE # 835
06B7 7F00              MOV     R7,#00H
06B9 120000      E     LCALL   _SPIM_WriteTxData
                                           ; SOURCE LINE # 836
06BC 7F18              MOV     R7,#018H
06BE 120000      E     LCALL   _SPIM_WriteTxData
06C1         ?C0150:
                                           ; SOURCE LINE # 837
06C1 120000      E     LCALL   SPIM_ReadTxStatus
06C4 EF                MOV     A,R7
06C5 30E1F9            JNB     ACC.1,?C0150
06C8         ?C0151:
                                           ; SOURCE LINE # 839
06C8 7F0F              MOV     R7,#0FH
06CA 7E00              MOV     R6,#00H
06CC 120000      E     LCALL   _CyDelayUs
                                           ; SOURCE LINE # 841
06CF 90502C            MOV     DPTR,#0502CH
06D2 E0                MOVX    A,@DPTR
06D3 FF                MOV     R7,A
06D4 EF                MOV     A,R7
06D5 4401              ORL     A,#01H
06D7 FF                MOV     R7,A
06D8 EF                MOV     A,R7
06D9 F0                MOVX    @DPTR,A
                                           ; SOURCE LINE # 843
06DA 7F14              MOV     R7,#014H
C51 COMPILER V9.51   TASK1                                                                 07/01/2014 18:20:50 PAGE 81  

06DC 7E00              MOV     R6,#00H
06DE 120000      E     LCALL   _CyDelayUs
                                           ; SOURCE LINE # 845
06E1 90502C            MOV     DPTR,#0502CH
06E4 E0                MOVX    A,@DPTR
06E5 FF                MOV     R7,A
06E6 EF                MOV     A,R7
06E7 54FE              ANL     A,#0FEH
06E9 FF                MOV     R7,A
06EA EF                MOV     A,R7
06EB F0                MOVX    @DPTR,A
                                           ; SOURCE LINE # 847
06EC 7F0F              MOV     R7,#0FH
06EE 120000      E     LCALL   _SPIM_WriteTxData
                                           ; SOURCE LINE # 848
06F1 7F00              MOV     R7,#00H
06F3 120000      E     LCALL   _SPIM_WriteTxData
                                           ; SOURCE LINE # 849
06F6 7F00              MOV     R7,#00H
06F8 120000      E     LCALL   _SPIM_WriteTxData
06FB         ?C0152:
                                           ; SOURCE LINE # 850
06FB 120000      E     LCALL   SPIM_ReadTxStatus
06FE EF                MOV     A,R7
06FF 30E1F9            JNB     ACC.1,?C0152
0702         ?C0153:
                                           ; SOURCE LINE # 852
0702 7F0F              MOV     R7,#0FH
0704 7E00              MOV     R6,#00H
0706 120000      E     LCALL   _CyDelayUs
                                           ; SOURCE LINE # 854
0709 90502C            MOV     DPTR,#0502CH
070C E0                MOVX    A,@DPTR
070D FF                MOV     R7,A
070E EF                MOV     A,R7
070F 4401              ORL     A,#01H
0711 FF                MOV     R7,A
0712 EF                MOV     A,R7
0713 F0                MOVX    @DPTR,A
                                           ; SOURCE LINE # 855
0714 020000      R     LJMP    ?C0112
0717         ?C0141:
                                           ; SOURCE LINE # 857
                                           ; SOURCE LINE # 858
0717 90502C            MOV     DPTR,#0502CH
071A E0                MOVX    A,@DPTR
071B FF                MOV     R7,A
071C EF                MOV     A,R7
071D 54FE              ANL     A,#0FEH
071F FF                MOV     R7,A
0720 EF                MOV     A,R7
0721 F0                MOVX    @DPTR,A
                                           ; SOURCE LINE # 860
0722 7F04              MOV     R7,#04H
0724 120000      E     LCALL   _SPIM_WriteTxData
                                           ; SOURCE LINE # 861
0727 7F00              MOV     R7,#00H
0729 120000      E     LCALL   _SPIM_WriteTxData
                                           ; SOURCE LINE # 862
072C 7F00              MOV     R7,#00H
072E 120000      E     LCALL   _SPIM_WriteTxData
0731         ?C0155:
C51 COMPILER V9.51   TASK1                                                                 07/01/2014 18:20:50 PAGE 82  

                                           ; SOURCE LINE # 863
0731 120000      E     LCALL   SPIM_ReadTxStatus
0734 EF                MOV     A,R7
0735 30E1F9            JNB     ACC.1,?C0155
0738         ?C0156:
                                           ; SOURCE LINE # 865
0738 7F0F              MOV     R7,#0FH
073A 7E00              MOV     R6,#00H
073C 120000      E     LCALL   _CyDelayUs
                                           ; SOURCE LINE # 867
073F 90502C            MOV     DPTR,#0502CH
0742 E0                MOVX    A,@DPTR
0743 FF                MOV     R7,A
0744 EF                MOV     A,R7
0745 4401              ORL     A,#01H
0747 FF                MOV     R7,A
0748 EF                MOV     A,R7
0749 F0                MOVX    @DPTR,A
                                           ; SOURCE LINE # 869
074A 7F14              MOV     R7,#014H
074C 7E00              MOV     R6,#00H
074E 120000      E     LCALL   _CyDelayUs
                                           ; SOURCE LINE # 871
0751 90502C            MOV     DPTR,#0502CH
0754 E0                MOVX    A,@DPTR
0755 FF                MOV     R7,A
0756 EF                MOV     A,R7
0757 54FE              ANL     A,#0FEH
0759 FF                MOV     R7,A
075A EF                MOV     A,R7
075B F0                MOVX    @DPTR,A
                                           ; SOURCE LINE # 873
075C 7F05              MOV     R7,#05H
075E 120000      E     LCALL   _SPIM_WriteTxData
                                           ; SOURCE LINE # 874
0761 7F00              MOV     R7,#00H
0763 120000      E     LCALL   _SPIM_WriteTxData
                                           ; SOURCE LINE # 875
0766 7F00              MOV     R7,#00H
0768 120000      E     LCALL   _SPIM_WriteTxData
076B         ?C0157:
                                           ; SOURCE LINE # 876
076B 120000      E     LCALL   SPIM_ReadTxStatus
076E EF                MOV     A,R7
076F 30E1F9            JNB     ACC.1,?C0157
0772         ?C0158:
                                           ; SOURCE LINE # 878
0772 7F0F              MOV     R7,#0FH
0774 7E00              MOV     R6,#00H
0776 120000      E     LCALL   _CyDelayUs
                                           ; SOURCE LINE # 880
0779 90502C            MOV     DPTR,#0502CH
077C E0                MOVX    A,@DPTR
077D FF                MOV     R7,A
077E EF                MOV     A,R7
077F 4401              ORL     A,#01H
0781 FF                MOV     R7,A
0782 EF                MOV     A,R7
0783 F0                MOVX    @DPTR,A
                                           ; SOURCE LINE # 882
0784 7F14              MOV     R7,#014H
0786 7E00              MOV     R6,#00H
C51 COMPILER V9.51   TASK1                                                                 07/01/2014 18:20:50 PAGE 83  

0788 120000      E     LCALL   _CyDelayUs
                                           ; SOURCE LINE # 884
078B 90502C            MOV     DPTR,#0502CH
078E E0                MOVX    A,@DPTR
078F FF                MOV     R7,A
0790 EF                MOV     A,R7
0791 54FE              ANL     A,#0FEH
0793 FF                MOV     R7,A
0794 EF                MOV     A,R7
0795 F0                MOVX    @DPTR,A
                                           ; SOURCE LINE # 886
0796 7F06              MOV     R7,#06H
0798 120000      E     LCALL   _SPIM_WriteTxData
                                           ; SOURCE LINE # 887
079B 7F00              MOV     R7,#00H
079D 120000      E     LCALL   _SPIM_WriteTxData
                                           ; SOURCE LINE # 888
07A0 7F00              MOV     R7,#00H
07A2 120000      E     LCALL   _SPIM_WriteTxData
07A5         ?C0159:
                                           ; SOURCE LINE # 889
07A5 120000      E     LCALL   SPIM_ReadTxStatus
07A8 EF                MOV     A,R7
07A9 30E1F9            JNB     ACC.1,?C0159
07AC         ?C0160:
                                           ; SOURCE LINE # 891
07AC 7F0F              MOV     R7,#0FH
07AE 7E00              MOV     R6,#00H
07B0 120000      E     LCALL   _CyDelayUs
                                           ; SOURCE LINE # 893
07B3 90502C            MOV     DPTR,#0502CH
07B6 E0                MOVX    A,@DPTR
07B7 FF                MOV     R7,A
07B8 EF                MOV     A,R7
07B9 4401              ORL     A,#01H
07BB FF                MOV     R7,A
07BC EF                MOV     A,R7
07BD F0                MOVX    @DPTR,A
                                           ; SOURCE LINE # 895
07BE 7F14              MOV     R7,#014H
07C0 7E00              MOV     R6,#00H
07C2 120000      E     LCALL   _CyDelayUs
                                           ; SOURCE LINE # 897
07C5 90502C            MOV     DPTR,#0502CH
07C8 E0                MOVX    A,@DPTR
07C9 FF                MOV     R7,A
07CA EF                MOV     A,R7
07CB 54FE              ANL     A,#0FEH
07CD FF                MOV     R7,A
07CE EF                MOV     A,R7
07CF F0                MOVX    @DPTR,A
                                           ; SOURCE LINE # 899
07D0 7F07              MOV     R7,#07H
07D2 120000      E     LCALL   _SPIM_WriteTxData
                                           ; SOURCE LINE # 900
07D5 7F00              MOV     R7,#00H
07D7 120000      E     LCALL   _SPIM_WriteTxData
                                           ; SOURCE LINE # 901
07DA 7F00              MOV     R7,#00H
07DC 120000      E     LCALL   _SPIM_WriteTxData
07DF         ?C0161:
                                           ; SOURCE LINE # 902
C51 COMPILER V9.51   TASK1                                                                 07/01/2014 18:20:50 PAGE 84  

07DF 120000      E     LCALL   SPIM_ReadTxStatus
07E2 EF                MOV     A,R7
07E3 30E1F9            JNB     ACC.1,?C0161
07E6         ?C0162:
                                           ; SOURCE LINE # 904
07E6 7F0F              MOV     R7,#0FH
07E8 7E00              MOV     R6,#00H
07EA 120000      E     LCALL   _CyDelayUs
                                           ; SOURCE LINE # 906
07ED 90502C            MOV     DPTR,#0502CH
07F0 E0                MOVX    A,@DPTR
07F1 FF                MOV     R7,A
07F2 EF                MOV     A,R7
07F3 4401              ORL     A,#01H
07F5 FF                MOV     R7,A
07F6 EF                MOV     A,R7
07F7 F0                MOVX    @DPTR,A
                                           ; SOURCE LINE # 908
07F8 7F14              MOV     R7,#014H
07FA 7E00              MOV     R6,#00H
07FC 120000      E     LCALL   _CyDelayUs
                                           ; SOURCE LINE # 910
07FF 90502C            MOV     DPTR,#0502CH
0802 E0                MOVX    A,@DPTR
0803 FF                MOV     R7,A
0804 EF                MOV     A,R7
0805 54FE              ANL     A,#0FEH
0807 FF                MOV     R7,A
0808 EF                MOV     A,R7
0809 F0                MOVX    @DPTR,A
                                           ; SOURCE LINE # 912
080A 7F09              MOV     R7,#09H
080C 120000      E     LCALL   _SPIM_WriteTxData
                                           ; SOURCE LINE # 913
080F 7F00              MOV     R7,#00H
0811 120000      E     LCALL   _SPIM_WriteTxData
                                           ; SOURCE LINE # 914
0814 7F00              MOV     R7,#00H
0816 120000      E     LCALL   _SPIM_WriteTxData
0819         ?C0163:
                                           ; SOURCE LINE # 915
0819 120000      E     LCALL   SPIM_ReadTxStatus
081C EF                MOV     A,R7
081D 30E1F9            JNB     ACC.1,?C0163
0820         ?C0164:
                                           ; SOURCE LINE # 917
0820 7F0F              MOV     R7,#0FH
0822 7E00              MOV     R6,#00H
0824 120000      E     LCALL   _CyDelayUs
                                           ; SOURCE LINE # 919
0827 90502C            MOV     DPTR,#0502CH
082A E0                MOVX    A,@DPTR
082B FF                MOV     R7,A
082C EF                MOV     A,R7
082D 4401              ORL     A,#01H
082F FF                MOV     R7,A
0830 EF                MOV     A,R7
0831 F0                MOVX    @DPTR,A
                                           ; SOURCE LINE # 921
0832 7F14              MOV     R7,#014H
0834 7E00              MOV     R6,#00H
0836 120000      E     LCALL   _CyDelayUs
C51 COMPILER V9.51   TASK1                                                                 07/01/2014 18:20:50 PAGE 85  

                                           ; SOURCE LINE # 923
0839 90502C            MOV     DPTR,#0502CH
083C E0                MOVX    A,@DPTR
083D FF                MOV     R7,A
083E EF                MOV     A,R7
083F 54FE              ANL     A,#0FEH
0841 FF                MOV     R7,A
0842 EF                MOV     A,R7
0843 F0                MOVX    @DPTR,A
                                           ; SOURCE LINE # 925
0844 7F0F              MOV     R7,#0FH
0846 120000      E     LCALL   _SPIM_WriteTxData
                                           ; SOURCE LINE # 926
0849 7F00              MOV     R7,#00H
084B 120000      E     LCALL   _SPIM_WriteTxData
                                           ; SOURCE LINE # 927
084E 7F00              MOV     R7,#00H
0850 120000      E     LCALL   _SPIM_WriteTxData
0853         ?C0165:
                                           ; SOURCE LINE # 928
0853 120000      E     LCALL   SPIM_ReadTxStatus
0856 EF                MOV     A,R7
0857 30E1F9            JNB     ACC.1,?C0165
085A         ?C0166:
                                           ; SOURCE LINE # 929
085A 7F0F              MOV     R7,#0FH
085C 7E00              MOV     R6,#00H
085E 120000      E     LCALL   _CyDelayUs
                                           ; SOURCE LINE # 931
0861 90502C            MOV     DPTR,#0502CH
0864 E0                MOVX    A,@DPTR
0865 FF                MOV     R7,A
0866 EF                MOV     A,R7
0867 4401              ORL     A,#01H
0869 FF                MOV     R7,A
086A EF                MOV     A,R7
086B F0                MOVX    @DPTR,A
                                           ; SOURCE LINE # 932
086C         ?C0112:
                                           ; SOURCE LINE # 933
086C 7F0A              MOV     R7,#0AH
086E 7E00              MOV     R6,#00H
0870 7D00              MOV     R5,#00H
0872 7C00              MOV     R4,#00H
0874 120000      E     LCALL   _?CyDelay
                                           ; SOURCE LINE # 934
0877 22                RET     
             ; FUNCTION _Ref_Chnl_Switch (END)

             ; FUNCTION _switching_main (BEGIN)
                                           ; SOURCE LINE # 936
0000 900000      R     MOV     DPTR,#cmd
0003 120000      E     LCALL   ?C?PSTXDATA
                                           ; SOURCE LINE # 937
                                           ; SOURCE LINE # 940
0006 120000      E     LCALL   UART_ClearRxBuffer
                                           ; SOURCE LINE # 941
0009 120000      E     LCALL   UART_ClearTxBuffer
                                           ; SOURCE LINE # 943
000C 900000      R     MOV     DPTR,#cmd
000F 120000      E     LCALL   ?C?PLDXDATA
0012 120000      E     LCALL   ?C?CLDPTR
C51 COMPILER V9.51   TASK1                                                                 07/01/2014 18:20:50 PAGE 86  

0015 FF                MOV     R7,A
0016 EF                MOV     A,R7
0017 120000      E     LCALL   ?C?CCASE
001A 0000        R     DW      ?C0175
001C 03                DB      03H
001D 0000        R     DW      ?C0181
001F 06                DB      06H
0020 0000        R     DW      ?C0184
0022 09                DB      09H
0023 0000        R     DW      ?C0199
0025 0A                DB      0AH
0026 0000        R     DW      ?C0209
0028 0B                DB      0BH
0029 0000        R     DW      ?C0218
002B 0C                DB      0CH
002C 0000        R     DW      ?C0227
002E 10                DB      010H
002F 0000        R     DW      ?C0230
0031 11                DB      011H
0032 0000        R     DW      ?C0233
0034 1C                DB      01CH
0035 0000        R     DW      ?C0248
0037 40                DB      040H
0038 0000        R     DW      ?C0251
003A 45                DB      045H
003B 0000        R     DW      ?C0266
003D 46                DB      046H
003E 0000        R     DW      ?C0283
0040 47                DB      047H
0041 0000        R     DW      ?C0286
0043 48                DB      048H
0044 0000        R     DW      ?C0289
0046 50                DB      050H
0047 0000        R     DW      ?C0319
0049 51                DB      051H
004A 0000        R     DW      ?C0169
004C F1                DB      0F1H
004D 0000        R     DW      ?C0172
004F F2                DB      0F2H
0050 0000        R     DW      ?C0178
0052 FC                DB      0FCH
0053 0000        R     DW      ?C0400
0055 FF                DB      0FFH
0056 0000              DW      00H
0058 0000        R     DW      ?C0412
                                           ; SOURCE LINE # 945
005A         ?C0169:
                                           ; SOURCE LINE # 947
005A 120000      R     LCALL   Relays_Init
                                           ; SOURCE LINE # 950
005D 7BFF              MOV     R3,#0FFH
005F 7A00        R     MOV     R2,#HIGH ?SC_5
0061 7900        R     MOV     R1,#LOW ?SC_5
0063 120000      E     LCALL   _UART_PutString
0066         ?C0170:
                                           ; SOURCE LINE # 951
0066 120000      E     LCALL   UART_ReadTxStatus
0069 EF                MOV     A,R7
006A 30E103            JNB     ACC.1,$ + 6H
006D 020000      R     LJMP    ?C0412
0070 80F4              SJMP    ?C0170
0072         ?C0171:
C51 COMPILER V9.51   TASK1                                                                 07/01/2014 18:20:50 PAGE 87  

                                           ; SOURCE LINE # 954
0072 22                RET     
                                           ; SOURCE LINE # 956
0073         ?C0172:
                                           ; SOURCE LINE # 958
0073 120000      R     LCALL   Relays_Init
                                           ; SOURCE LINE # 960
0076 905015            MOV     DPTR,#05015H
0079 E0                MOVX    A,@DPTR
007A FF                MOV     R7,A
007B EF                MOV     A,R7
007C 4401              ORL     A,#01H
007E FF                MOV     R7,A
007F EF                MOV     A,R7
0080 F0                MOVX    @DPTR,A
                                           ; SOURCE LINE # 961
0081 7F64              MOV     R7,#064H
0083 7E00              MOV     R6,#00H
0085 120000      E     LCALL   _CyDelayUs
                                           ; SOURCE LINE # 962
0088 905014            MOV     DPTR,#05014H
008B E0                MOVX    A,@DPTR
008C FF                MOV     R7,A
008D EF                MOV     A,R7
008E 4401              ORL     A,#01H
0090 FF                MOV     R7,A
0091 EF                MOV     A,R7
0092 F0                MOVX    @DPTR,A
                                           ; SOURCE LINE # 964
0093 7BFF              MOV     R3,#0FFH
0095 7A00        R     MOV     R2,#HIGH ?SC_11
0097 7900        R     MOV     R1,#LOW ?SC_11
0099 120000      E     LCALL   _UART_PutString
009C         ?C0173:
                                           ; SOURCE LINE # 965
009C 120000      E     LCALL   UART_ReadTxStatus
009F EF                MOV     A,R7
00A0 30E103            JNB     ACC.1,$ + 6H
00A3 020000      R     LJMP    ?C0412
00A6 80F4              SJMP    ?C0173
00A8         ?C0174:
                                           ; SOURCE LINE # 976
00A8 22                RET     
                                           ; SOURCE LINE # 978
00A9         ?C0175:
                                           ; SOURCE LINE # 980
00A9 120000      R     LCALL   Relays_Init
                                           ; SOURCE LINE # 982
00AC 905012            MOV     DPTR,#05012H
00AF E0                MOVX    A,@DPTR
00B0 FF                MOV     R7,A
00B1 EF                MOV     A,R7
00B2 4401              ORL     A,#01H
00B4 FF                MOV     R7,A
00B5 EF                MOV     A,R7
00B6 F0                MOVX    @DPTR,A
                                           ; SOURCE LINE # 984
00B7 7BFF              MOV     R3,#0FFH
00B9 7A00        R     MOV     R2,#HIGH ?SC_17
00BB 7900        R     MOV     R1,#LOW ?SC_17
00BD 120000      E     LCALL   _UART_PutString
00C0         ?C0176:
C51 COMPILER V9.51   TASK1                                                                 07/01/2014 18:20:50 PAGE 88  

                                           ; SOURCE LINE # 985
00C0 120000      E     LCALL   UART_ReadTxStatus
00C3 EF                MOV     A,R7
00C4 30E103            JNB     ACC.1,$ + 6H
00C7 020000      R     LJMP    ?C0412
00CA 80F4              SJMP    ?C0176
00CC         ?C0177:
                                           ; SOURCE LINE # 987
00CC 22                RET     
                                           ; SOURCE LINE # 988
00CD         ?C0178:
                                           ; SOURCE LINE # 992
00CD 905011            MOV     DPTR,#05011H
00D0 E0                MOVX    A,@DPTR
00D1 FF                MOV     R7,A
00D2 EF                MOV     A,R7
00D3 4401              ORL     A,#01H
00D5 FF                MOV     R7,A
00D6 EF                MOV     A,R7
00D7 F0                MOVX    @DPTR,A
                                           ; SOURCE LINE # 994
00D8 7BFF              MOV     R3,#0FFH
00DA 7A00        R     MOV     R2,#HIGH ?SC_23
00DC 7900        R     MOV     R1,#LOW ?SC_23
00DE 120000      E     LCALL   _UART_PutString
00E1         ?C0179:
                                           ; SOURCE LINE # 995
00E1 120000      E     LCALL   UART_ReadTxStatus
00E4 EF                MOV     A,R7
00E5 30E103            JNB     ACC.1,$ + 6H
00E8 020000      R     LJMP    ?C0412
00EB 80F4              SJMP    ?C0179
00ED         ?C0180:
                                           ; SOURCE LINE # 997
00ED 22                RET     
                                           ; SOURCE LINE # 1000
00EE         ?C0181:
                                           ; SOURCE LINE # 1002
00EE 120000      R     LCALL   Relays_Init
                                           ; SOURCE LINE # 1004
00F1 905013            MOV     DPTR,#05013H
00F4 E0                MOVX    A,@DPTR
00F5 FF                MOV     R7,A
00F6 EF                MOV     A,R7
00F7 4401              ORL     A,#01H
00F9 FF                MOV     R7,A
00FA EF                MOV     A,R7
00FB F0                MOVX    @DPTR,A
                                           ; SOURCE LINE # 1006
00FC 7BFF              MOV     R3,#0FFH
00FE 7A00        R     MOV     R2,#HIGH ?SC_29
0100 7900        R     MOV     R1,#LOW ?SC_29
0102 120000      E     LCALL   _UART_PutString
0105         ?C0182:
                                           ; SOURCE LINE # 1007
0105 120000      E     LCALL   UART_ReadTxStatus
0108 EF                MOV     A,R7
0109 30E103            JNB     ACC.1,$ + 6H
010C 020000      R     LJMP    ?C0412
010F 80F4              SJMP    ?C0182
0111         ?C0183:
                                           ; SOURCE LINE # 1010
C51 COMPILER V9.51   TASK1                                                                 07/01/2014 18:20:50 PAGE 89  

0111 22                RET     
                                           ; SOURCE LINE # 1013
0112         ?C0184:
                                           ; SOURCE LINE # 1014
0112 90501C            MOV     DPTR,#0501CH
0115 E0                MOVX    A,@DPTR
0116 FF                MOV     R7,A
0117 EF                MOV     A,R7
0118 4401              ORL     A,#01H
011A FF                MOV     R7,A
011B EF                MOV     A,R7
011C F0                MOVX    @DPTR,A
                                           ; SOURCE LINE # 1015
011D 90501D            MOV     DPTR,#0501DH
0120 E0                MOVX    A,@DPTR
0121 FF                MOV     R7,A
0122 EF                MOV     A,R7
0123 4401              ORL     A,#01H
0125 FF                MOV     R7,A
0126 EF                MOV     A,R7
0127 F0                MOVX    @DPTR,A
                                           ; SOURCE LINE # 1016
0128 900000      R     MOV     DPTR,#swtch_delay
012B E0                MOVX    A,@DPTR
012C FE                MOV     R6,A
012D A3                INC     DPTR
012E E0                MOVX    A,@DPTR
012F FF                MOV     R7,A
0130 E4                CLR     A
0131 FC                MOV     R4,A
0132 FD                MOV     R5,A
0133 120000      E     LCALL   _?CyDelay
                                           ; SOURCE LINE # 1018
0136 900000      R     MOV     DPTR,#cmd+01H
0139 E4                CLR     A
013A 75F001            MOV     B,#01H
013D 120000      E     LCALL   ?C?IILDX
                                           ; SOURCE LINE # 1019
0140 900000      R     MOV     DPTR,#cmd
0143 120000      E     LCALL   ?C?PLDXDATA
0146 120000      E     LCALL   ?C?CLDPTR
0149 FF                MOV     R7,A
014A 7E00              MOV     R6,#00H
014C 120000      R     LCALL   _Test_Chnl_Switch
                                           ; SOURCE LINE # 1021
014F 900000      E     MOV     DPTR,#rx_word+01H
0152 E0                MOVX    A,@DPTR
0153 FF                MOV     R7,A
0154 900000      R     MOV     DPTR,#tp1
0157 EF                MOV     A,R7
0158 F0                MOVX    @DPTR,A
                                           ; SOURCE LINE # 1023
0159 900000      R     MOV     DPTR,#swtch_delay
015C E0                MOVX    A,@DPTR
015D FE                MOV     R6,A
015E A3                INC     DPTR
015F E0                MOVX    A,@DPTR
0160 FF                MOV     R7,A
0161 E4                CLR     A
0162 FC                MOV     R4,A
0163 FD                MOV     R5,A
0164 120000      E     LCALL   _?CyDelay
C51 COMPILER V9.51   TASK1                                                                 07/01/2014 18:20:50 PAGE 90  

                                           ; SOURCE LINE # 1025
0167 900000      R     MOV     DPTR,#cmd+01H
016A E4                CLR     A
016B 75F001            MOV     B,#01H
016E 120000      E     LCALL   ?C?IILDX
                                           ; SOURCE LINE # 1026
0171 900000      R     MOV     DPTR,#cmd
0174 120000      E     LCALL   ?C?PLDXDATA
0177 120000      E     LCALL   ?C?CLDPTR
017A FF                MOV     R7,A
017B 7E00              MOV     R6,#00H
017D 120000      R     LCALL   _Ref_Chnl_Switch
                                           ; SOURCE LINE # 1028
0180 900000      E     MOV     DPTR,#rx_word+02H
0183 E0                MOVX    A,@DPTR
0184 FF                MOV     R7,A
0185 900000      R     MOV     DPTR,#tp1+02H
0188 EF                MOV     A,R7
0189 F0                MOVX    @DPTR,A
                                           ; SOURCE LINE # 1030
018A 900000      R     MOV     DPTR,#tst_bank
018D E0                MOVX    A,@DPTR
018E FF                MOV     R7,A
018F 900000      R     MOV     DPTR,#tp1+04H
0192 EF                MOV     A,R7
0193 F0                MOVX    @DPTR,A
                                           ; SOURCE LINE # 1032
0194 900000      R     MOV     DPTR,#spi_tst_ch_tmp
0197 E0                MOVX    A,@DPTR
0198 FF                MOV     R7,A
0199 900000      R     MOV     DPTR,#tp1+06H
019C EF                MOV     A,R7
019D F0                MOVX    @DPTR,A
                                           ; SOURCE LINE # 1034
019E 900000      R     MOV     DPTR,#spi_tst_ch_tmp1
01A1 E0                MOVX    A,@DPTR
01A2 FF                MOV     R7,A
01A3 900000      R     MOV     DPTR,#tp1+08H
01A6 EF                MOV     A,R7
01A7 F0                MOVX    @DPTR,A
                                           ; SOURCE LINE # 1036
01A8 900000      R     MOV     DPTR,#ref_bank
01AB E0                MOVX    A,@DPTR
01AC FF                MOV     R7,A
01AD 900000      R     MOV     DPTR,#tp1+0AH
01B0 EF                MOV     A,R7
01B1 F0                MOVX    @DPTR,A
                                           ; SOURCE LINE # 1038
01B2 900000      R     MOV     DPTR,#spi_ref_ch_tmp
01B5 E0                MOVX    A,@DPTR
01B6 FF                MOV     R7,A
01B7 900000      R     MOV     DPTR,#tp1+0CH
01BA EF                MOV     A,R7
01BB F0                MOVX    @DPTR,A
                                           ; SOURCE LINE # 1040
01BC 900000      R     MOV     DPTR,#spi_ref_ch_tmp1
01BF E0                MOVX    A,@DPTR
01C0 FF                MOV     R7,A
01C1 900000      R     MOV     DPTR,#tp1+0EH
01C4 EF                MOV     A,R7
01C5 F0                MOVX    @DPTR,A
                                           ; SOURCE LINE # 1042
C51 COMPILER V9.51   TASK1                                                                 07/01/2014 18:20:50 PAGE 91  

01C6 900000      R     MOV     DPTR,#delay
01C9 E0                MOVX    A,@DPTR
01CA FE                MOV     R6,A
01CB A3                INC     DPTR
01CC E0                MOVX    A,@DPTR
01CD FF                MOV     R7,A
01CE E4                CLR     A
01CF FC                MOV     R4,A
01D0 FD                MOV     R5,A
01D1 120000      E     LCALL   _?CyDelay
                                           ; SOURCE LINE # 1044
01D4 7BFF              MOV     R3,#0FFH
01D6 7A00        R     MOV     R2,#HIGH ?SC_35
01D8 7900        R     MOV     R1,#LOW ?SC_35
01DA 120000      E     LCALL   _UART_PutString
01DD         ?C0185:
                                           ; SOURCE LINE # 1045
01DD 120000      E     LCALL   UART_ReadTxStatus
01E0 EF                MOV     A,R7
01E1 30E1F9            JNB     ACC.1,?C0185
01E4         ?C0186:
                                           ; SOURCE LINE # 1047
01E4 7BFF              MOV     R3,#0FFH
01E6 7A00        R     MOV     R2,#HIGH ?SC_37
01E8 7900        R     MOV     R1,#LOW ?SC_37
01EA 120000      E     LCALL   _UART_PutString
01ED         ?C0187:
                                           ; SOURCE LINE # 1048
01ED 120000      E     LCALL   UART_ReadTxStatus
01F0 EF                MOV     A,R7
01F1 30E1F9            JNB     ACC.1,?C0187
01F4         ?C0188:
                                           ; SOURCE LINE # 1050
01F4 7BFF              MOV     R3,#0FFH
01F6 7A00        R     MOV     R2,#HIGH ?SC_39
01F8 7900        R     MOV     R1,#LOW ?SC_39
01FA 120000      E     LCALL   _UART_PutString
01FD         ?C0189:
                                           ; SOURCE LINE # 1051
01FD 120000      E     LCALL   UART_ReadTxStatus
0200 EF                MOV     A,R7
0201 30E1F9            JNB     ACC.1,?C0189
0204         ?C0190:
                                           ; SOURCE LINE # 1053
0204 7BFF              MOV     R3,#0FFH
0206 7A00        R     MOV     R2,#HIGH ?SC_39
0208 7900        R     MOV     R1,#LOW ?SC_39
020A 120000      E     LCALL   _UART_PutString
020D         ?C0191:
                                           ; SOURCE LINE # 1054
020D 120000      E     LCALL   UART_ReadTxStatus
0210 EF                MOV     A,R7
0211 30E1F9            JNB     ACC.1,?C0191
0214         ?C0192:
                                           ; SOURCE LINE # 1056
0214 7BFF              MOV     R3,#0FFH
0216 7A00        R     MOV     R2,#HIGH ?SC_41
0218 7900        R     MOV     R1,#LOW ?SC_41
021A 120000      E     LCALL   _UART_PutString
021D         ?C0193:
                                           ; SOURCE LINE # 1057
021D 120000      E     LCALL   UART_ReadTxStatus
C51 COMPILER V9.51   TASK1                                                                 07/01/2014 18:20:50 PAGE 92  

0220 EF                MOV     A,R7
0221 30E1F9            JNB     ACC.1,?C0193
0224         ?C0194:
                                           ; SOURCE LINE # 1059
0224 7BFF              MOV     R3,#0FFH
0226 7A00        R     MOV     R2,#HIGH ?SC_35
0228 7900        R     MOV     R1,#LOW ?SC_35
022A 120000      E     LCALL   _UART_PutString
022D         ?C0195:
                                           ; SOURCE LINE # 1060
022D 120000      E     LCALL   UART_ReadTxStatus
0230 EF                MOV     A,R7
0231 30E1F9            JNB     ACC.1,?C0195
0234         ?C0196:
                                           ; SOURCE LINE # 1062
0234 7BFF              MOV     R3,#0FFH
0236 7A00        R     MOV     R2,#HIGH ?SC_35
0238 7900        R     MOV     R1,#LOW ?SC_35
023A 120000      E     LCALL   _UART_PutString
023D         ?C0197:
                                           ; SOURCE LINE # 1063
023D 120000      E     LCALL   UART_ReadTxStatus
0240 EF                MOV     A,R7
0241 30E1F9            JNB     ACC.1,?C0197
0244         ?C0198:
                                           ; SOURCE LINE # 1065
0244 120000      E     LCALL   UART_ClearRxBuffer
                                           ; SOURCE LINE # 1066
0247 120000      E     LCALL   UART_ClearTxBuffer
                                           ; SOURCE LINE # 1068
024A 22                RET     
                                           ; SOURCE LINE # 1070
024B         ?C0199:
                                           ; SOURCE LINE # 1072
024B 7BFF              MOV     R3,#0FFH
024D 7A00        R     MOV     R2,#HIGH ?SC_0
024F 7900        R     MOV     R1,#LOW ?SC_0
0251 120000      E     LCALL   _UART_PutString
0254         ?C0200:
                                           ; SOURCE LINE # 1073
0254 120000      E     LCALL   UART_ReadTxStatus
0257 EF                MOV     A,R7
0258 30E1F9            JNB     ACC.1,?C0200
025B         ?C0201:
                                           ; SOURCE LINE # 1084
025B 120000      E     LCALL   SPIM_ClearTxBuffer
                                           ; SOURCE LINE # 1086
025E 90502C            MOV     DPTR,#0502CH
0261 E0                MOVX    A,@DPTR
0262 FF                MOV     R7,A
0263 EF                MOV     A,R7
0264 54FE              ANL     A,#0FEH
0266 FF                MOV     R7,A
0267 EF                MOV     A,R7
0268 F0                MOVX    @DPTR,A
                                           ; SOURCE LINE # 1088
0269 7F15              MOV     R7,#015H
026B 120000      E     LCALL   _SPIM_WriteTxData
                                           ; SOURCE LINE # 1089
026E 7F15              MOV     R7,#015H
0270 120000      E     LCALL   _SPIM_WriteTxData
                                           ; SOURCE LINE # 1090
C51 COMPILER V9.51   TASK1                                                                 07/01/2014 18:20:50 PAGE 93  

0273 7F15              MOV     R7,#015H
0275 120000      E     LCALL   _SPIM_WriteTxData
0278         ?C0202:
                                           ; SOURCE LINE # 1092
0278 120000      E     LCALL   SPIM_ReadTxStatus
027B EF                MOV     A,R7
027C 20E10A            JB      ACC.1,?C0203
                                           ; SOURCE LINE # 1093
                                           ; SOURCE LINE # 1094
027F 120000      E     LCALL   SPIM_ReadRxData
0282 900000      R     MOV     DPTR,#rx_sword
0285 EF                MOV     A,R7
0286 F0                MOVX    @DPTR,A
                                           ; SOURCE LINE # 1095
0287 80EF              SJMP    ?C0202
0289         ?C0203:
                                           ; SOURCE LINE # 1097
0289 7F0E              MOV     R7,#0EH
028B 7E00              MOV     R6,#00H
028D 120000      E     LCALL   _CyDelayUs
                                           ; SOURCE LINE # 1099
0290 90502C            MOV     DPTR,#0502CH
0293 E0                MOVX    A,@DPTR
0294 FF                MOV     R7,A
0295 EF                MOV     A,R7
0296 4401              ORL     A,#01H
0298 FF                MOV     R7,A
0299 EF                MOV     A,R7
029A F0                MOVX    @DPTR,A
                                           ; SOURCE LINE # 1101
029B 7F05              MOV     R7,#05H
029D 7E00              MOV     R6,#00H
029F 120000      E     LCALL   _CyDelayUs
                                           ; SOURCE LINE # 1103
02A2 120000      E     LCALL   SPIM_ReadRxStatus
02A5 EF                MOV     A,R7
02A6 7003              JNZ     $ + 5H
02A8 020000      R     LJMP    ?C0412
                                           ; SOURCE LINE # 1104
                                           ; SOURCE LINE # 1105
02AB 120000      E     LCALL   SPIM_ReadRxData
02AE 900000      R     MOV     DPTR,#rx_sword
02B1 EF                MOV     A,R7
02B2 F0                MOVX    @DPTR,A
                                           ; SOURCE LINE # 1107
02B3 900000      R     MOV     DPTR,#rx_sword
02B6 E0                MOVX    A,@DPTR
02B7 FF                MOV     R7,A
02B8 EF                MOV     A,R7
02B9 B4150C            CJNE    A,#015H,?C0205
                                           ; SOURCE LINE # 1108
02BC 900000      R     MOV     DPTR,#rx_sword
02BF E0                MOVX    A,@DPTR
02C0 FF                MOV     R7,A
02C1 900000      R     MOV     DPTR,#mux_detect
02C4 EF                MOV     A,R7
02C5 F0                MOVX    @DPTR,A
                                           ; SOURCE LINE # 1109
02C6 8005              SJMP    ?C0206
02C8         ?C0205:
                                           ; SOURCE LINE # 1110
                                           ; SOURCE LINE # 1111
C51 COMPILER V9.51   TASK1                                                                 07/01/2014 18:20:50 PAGE 94  

02C8 900000      R     MOV     DPTR,#mux_detect
02CB E4                CLR     A
02CC F0                MOVX    @DPTR,A
                                           ; SOURCE LINE # 1112
02CD         ?C0206:
                                           ; SOURCE LINE # 1114
02CD 900000      R     MOV     DPTR,#mux_detect
02D0 E0                MOVX    A,@DPTR
02D1 FF                MOV     R7,A
02D2 120000      E     LCALL   _UART_WriteTxData
02D5         ?C0207:
                                           ; SOURCE LINE # 1115
02D5 120000      E     LCALL   UART_ReadTxStatus
02D8 EF                MOV     A,R7
02D9 30E1F9            JNB     ACC.1,?C0207
02DC         ?C0208:
                                           ; SOURCE LINE # 1116
02DC 120000      E     LCALL   SPIM_ClearRxBuffer
                                           ; SOURCE LINE # 1117
02DF 900000      R     MOV     DPTR,#mux_detect
02E2 E4                CLR     A
02E3 F0                MOVX    @DPTR,A
                                           ; SOURCE LINE # 1118
02E4 900000      R     MOV     DPTR,#rx_sword
02E7 E4                CLR     A
02E8 F0                MOVX    @DPTR,A
                                           ; SOURCE LINE # 1119
                                           ; SOURCE LINE # 1121
02E9 22                RET     
                                           ; SOURCE LINE # 1123
02EA         ?C0209:
                                           ; SOURCE LINE # 1125
02EA 900000      R     MOV     DPTR,#cmd+01H
02ED E4                CLR     A
02EE 75F001            MOV     B,#01H
02F1 120000      E     LCALL   ?C?IILDX
                                           ; SOURCE LINE # 1127
02F4 90501C            MOV     DPTR,#0501CH
02F7 E0                MOVX    A,@DPTR
02F8 FF                MOV     R7,A
02F9 EF                MOV     A,R7
02FA 4401              ORL     A,#01H
02FC FF                MOV     R7,A
02FD EF                MOV     A,R7
02FE F0                MOVX    @DPTR,A
                                           ; SOURCE LINE # 1128
02FF 90501D            MOV     DPTR,#0501DH
0302 E0                MOVX    A,@DPTR
0303 FF                MOV     R7,A
0304 EF                MOV     A,R7
0305 4401              ORL     A,#01H
0307 FF                MOV     R7,A
0308 EF                MOV     A,R7
0309 F0                MOVX    @DPTR,A
                                           ; SOURCE LINE # 1130
030A 900000      R     MOV     DPTR,#swtch_delay
030D E0                MOVX    A,@DPTR
030E FE                MOV     R6,A
030F A3                INC     DPTR
0310 E0                MOVX    A,@DPTR
0311 FF                MOV     R7,A
0312 E4                CLR     A
C51 COMPILER V9.51   TASK1                                                                 07/01/2014 18:20:50 PAGE 95  

0313 FC                MOV     R4,A
0314 FD                MOV     R5,A
0315 120000      E     LCALL   _?CyDelay
                                           ; SOURCE LINE # 1132
0318 900000      R     MOV     DPTR,#cmd
031B 120000      E     LCALL   ?C?PLDXDATA
031E 120000      E     LCALL   ?C?CLDPTR
0321 FF                MOV     R7,A
0322 7E00              MOV     R6,#00H
0324 120000      R     LCALL   _Test_Chnl_Switch
                                           ; SOURCE LINE # 1134
0327 7BFF              MOV     R3,#0FFH
0329 7A00        R     MOV     R2,#HIGH ?SC_43
032B 7900        R     MOV     R1,#LOW ?SC_43
032D 120000      E     LCALL   _UART_PutString
0330         ?C0210:
                                           ; SOURCE LINE # 1135
0330 120000      E     LCALL   UART_ReadTxStatus
0333 EF                MOV     A,R7
0334 30E1F9            JNB     ACC.1,?C0210
0337         ?C0211:
                                           ; SOURCE LINE # 1137
0337 7BFF              MOV     R3,#0FFH
0339 7A00        R     MOV     R2,#HIGH ?SC_43
033B 7900        R     MOV     R1,#LOW ?SC_43
033D 120000      E     LCALL   _UART_PutString
0340         ?C0212:
                                           ; SOURCE LINE # 1138
0340 120000      E     LCALL   UART_ReadTxStatus
0343 EF                MOV     A,R7
0344 30E1F9            JNB     ACC.1,?C0212
0347         ?C0213:
                                           ; SOURCE LINE # 1140
0347 7BFF              MOV     R3,#0FFH
0349 7A00        R     MOV     R2,#HIGH ?SC_43
034B 7900        R     MOV     R1,#LOW ?SC_43
034D 120000      E     LCALL   _UART_PutString
0350         ?C0214:
                                           ; SOURCE LINE # 1141
0350 120000      E     LCALL   UART_ReadTxStatus
0353 EF                MOV     A,R7
0354 30E1F9            JNB     ACC.1,?C0214
0357         ?C0215:
                                           ; SOURCE LINE # 1143
0357 7BFF              MOV     R3,#0FFH
0359 7A00        R     MOV     R2,#HIGH ?SC_45
035B 7900        R     MOV     R1,#LOW ?SC_45
035D 120000      E     LCALL   _UART_PutString
0360         ?C0216:
                                           ; SOURCE LINE # 1144
0360 120000      E     LCALL   UART_ReadTxStatus
0363 EF                MOV     A,R7
0364 30E103            JNB     ACC.1,$ + 6H
0367 020000      R     LJMP    ?C0412
036A 80F4              SJMP    ?C0216
036C         ?C0217:
                                           ; SOURCE LINE # 1146
036C 22                RET     
                                           ; SOURCE LINE # 1148
036D         ?C0218:
                                           ; SOURCE LINE # 1150
036D 900000      R     MOV     DPTR,#cmd+01H
C51 COMPILER V9.51   TASK1                                                                 07/01/2014 18:20:50 PAGE 96  

0370 E4                CLR     A
0371 75F001            MOV     B,#01H
0374 120000      E     LCALL   ?C?IILDX
                                           ; SOURCE LINE # 1152
0377 90501C            MOV     DPTR,#0501CH
037A E0                MOVX    A,@DPTR
037B FF                MOV     R7,A
037C EF                MOV     A,R7
037D 4401              ORL     A,#01H
037F FF                MOV     R7,A
0380 EF                MOV     A,R7
0381 F0                MOVX    @DPTR,A
                                           ; SOURCE LINE # 1153
0382 90501D            MOV     DPTR,#0501DH
0385 E0                MOVX    A,@DPTR
0386 FF                MOV     R7,A
0387 EF                MOV     A,R7
0388 4401              ORL     A,#01H
038A FF                MOV     R7,A
038B EF                MOV     A,R7
038C F0                MOVX    @DPTR,A
                                           ; SOURCE LINE # 1154
038D 900000      R     MOV     DPTR,#swtch_delay
0390 E0                MOVX    A,@DPTR
0391 FE                MOV     R6,A
0392 A3                INC     DPTR
0393 E0                MOVX    A,@DPTR
0394 FF                MOV     R7,A
0395 E4                CLR     A
0396 FC                MOV     R4,A
0397 FD                MOV     R5,A
0398 120000      E     LCALL   _?CyDelay
                                           ; SOURCE LINE # 1157
039B 900000      R     MOV     DPTR,#cmd
039E 120000      E     LCALL   ?C?PLDXDATA
03A1 120000      E     LCALL   ?C?CLDPTR
03A4 FF                MOV     R7,A
03A5 7E00              MOV     R6,#00H
03A7 120000      R     LCALL   _Ref_Chnl_Switch
                                           ; SOURCE LINE # 1159
03AA 7BFF              MOV     R3,#0FFH
03AC 7A00        R     MOV     R2,#HIGH ?SC_43
03AE 7900        R     MOV     R1,#LOW ?SC_43
03B0 120000      E     LCALL   _UART_PutString
03B3         ?C0219:
                                           ; SOURCE LINE # 1160
03B3 120000      E     LCALL   UART_ReadTxStatus
03B6 EF                MOV     A,R7
03B7 30E1F9            JNB     ACC.1,?C0219
03BA         ?C0220:
                                           ; SOURCE LINE # 1162
03BA 7BFF              MOV     R3,#0FFH
03BC 7A00        R     MOV     R2,#HIGH ?SC_43
03BE 7900        R     MOV     R1,#LOW ?SC_43
03C0 120000      E     LCALL   _UART_PutString
03C3         ?C0221:
                                           ; SOURCE LINE # 1163
03C3 120000      E     LCALL   UART_ReadTxStatus
03C6 EF                MOV     A,R7
03C7 30E1F9            JNB     ACC.1,?C0221
03CA         ?C0222:
                                           ; SOURCE LINE # 1165
C51 COMPILER V9.51   TASK1                                                                 07/01/2014 18:20:50 PAGE 97  

03CA 7BFF              MOV     R3,#0FFH
03CC 7A00        R     MOV     R2,#HIGH ?SC_43
03CE 7900        R     MOV     R1,#LOW ?SC_43
03D0 120000      E     LCALL   _UART_PutString
03D3         ?C0223:
                                           ; SOURCE LINE # 1166
03D3 120000      E     LCALL   UART_ReadTxStatus
03D6 EF                MOV     A,R7
03D7 30E1F9            JNB     ACC.1,?C0223
03DA         ?C0224:
                                           ; SOURCE LINE # 1168
03DA 7BFF              MOV     R3,#0FFH
03DC 7A00        R     MOV     R2,#HIGH ?SC_45
03DE 7900        R     MOV     R1,#LOW ?SC_45
03E0 120000      E     LCALL   _UART_PutString
03E3         ?C0225:
                                           ; SOURCE LINE # 1169
03E3 120000      E     LCALL   UART_ReadTxStatus
03E6 EF                MOV     A,R7
03E7 30E103            JNB     ACC.1,$ + 6H
03EA 020000      R     LJMP    ?C0412
03ED 80F4              SJMP    ?C0225
03EF         ?C0226:
                                           ; SOURCE LINE # 1171
03EF 22                RET     
                                           ; SOURCE LINE # 1173
03F0         ?C0227:
                                           ; SOURCE LINE # 1175
03F0 120000      E     LCALL   PWM_Start
                                           ; SOURCE LINE # 1176
03F3 120000      E     LCALL   PWM_Enable
                                           ; SOURCE LINE # 1178
03F6 7BFF              MOV     R3,#0FFH
03F8 7A00        R     MOV     R2,#HIGH ?SC_0
03FA 7900        R     MOV     R1,#LOW ?SC_0
03FC 120000      E     LCALL   _UART_PutString
03FF         ?C0228:
                                           ; SOURCE LINE # 1179
03FF 120000      E     LCALL   UART_ReadTxStatus
0402 EF                MOV     A,R7
0403 30E103            JNB     ACC.1,$ + 6H
0406 020000      R     LJMP    ?C0412
                                           ; SOURCE LINE # 1180
                                           ; SOURCE LINE # 1182
0409 80F4              SJMP    ?C0228
040B         ?C0229:
                                           ; SOURCE LINE # 1184
040B 22                RET     
                                           ; SOURCE LINE # 1186
040C         ?C0230:
                                           ; SOURCE LINE # 1188
040C 120000      E     LCALL   PWM_Stop
                                           ; SOURCE LINE # 1190
040F 7BFF              MOV     R3,#0FFH
0411 7A00        R     MOV     R2,#HIGH ?SC_0
0413 7900        R     MOV     R1,#LOW ?SC_0
0415 120000      E     LCALL   _UART_PutString
0418         ?C0231:
                                           ; SOURCE LINE # 1191
0418 120000      E     LCALL   UART_ReadTxStatus
041B EF                MOV     A,R7
041C 30E103            JNB     ACC.1,$ + 6H
C51 COMPILER V9.51   TASK1                                                                 07/01/2014 18:20:50 PAGE 98  

041F 020000      R     LJMP    ?C0412
                                           ; SOURCE LINE # 1192
                                           ; SOURCE LINE # 1194
0422 80F4              SJMP    ?C0231
0424         ?C0232:
                                           ; SOURCE LINE # 1196
0424 22                RET     
                                           ; SOURCE LINE # 1199
0425         ?C0233:
                                           ; SOURCE LINE # 1201
0425 900000      R     MOV     DPTR,#cmd+01H
0428 E4                CLR     A
0429 75F001            MOV     B,#01H
042C 120000      E     LCALL   ?C?IILDX
                                           ; SOURCE LINE # 1203
042F 900000      R     MOV     DPTR,#cmd
0432 120000      E     LCALL   ?C?PLDXDATA
0435 120000      E     LCALL   ?C?CLDPTR
0438 FF                MOV     R7,A
0439 EF                MOV     A,R7
043A 600E              JZ      ?C0235
043C 900000      R     MOV     DPTR,#cmd
043F 120000      E     LCALL   ?C?PLDXDATA
0442 120000      E     LCALL   ?C?CLDPTR
0445 FF                MOV     R7,A
0446 EF                MOV     A,R7
0447 B40125            CJNE    A,#01H,?C0234
044A         ?C0235:
                                           ; SOURCE LINE # 1204
                                           ; SOURCE LINE # 1205
044A 900000      R     MOV     DPTR,#cmd
044D 120000      E     LCALL   ?C?PLDXDATA
0450 120000      E     LCALL   ?C?CLDPTR
0453 FF                MOV     R7,A
0454 900000      E     MOV     DPTR,#embd_prb_int_config
0457 EF                MOV     A,R7
0458 F0                MOVX    @DPTR,A
                                           ; SOURCE LINE # 1207
0459 7BFF              MOV     R3,#0FFH
045B 7A00        R     MOV     R2,#HIGH ?SC_0
045D 7900        R     MOV     R1,#LOW ?SC_0
045F 120000      E     LCALL   _UART_PutString
0462         ?C0236:
                                           ; SOURCE LINE # 1208
0462 120000      E     LCALL   UART_ReadTxStatus
0465 EF                MOV     A,R7
0466 30E103            JNB     ACC.1,$ + 6H
0469 020000      R     LJMP    ?C0412
046C 80F4              SJMP    ?C0236
046E         ?C0237:
                                           ; SOURCE LINE # 1209
046E 22                RET     
046F         ?C0234:
                                           ; SOURCE LINE # 1210
046F 900000      R     MOV     DPTR,#cmd
0472 120000      E     LCALL   ?C?PLDXDATA
0475 120000      E     LCALL   ?C?CLDPTR
0478 FF                MOV     R7,A
0479 EF                MOV     A,R7
047A B40F16            CJNE    A,#0FH,?C0239
                                           ; SOURCE LINE # 1211
                                           ; SOURCE LINE # 1214
C51 COMPILER V9.51   TASK1                                                                 07/01/2014 18:20:50 PAGE 99  

047D 7BFF              MOV     R3,#0FFH
047F 7A00        R     MOV     R2,#HIGH ?SC_0
0481 7900        R     MOV     R1,#LOW ?SC_0
0483 120000      E     LCALL   _UART_PutString
0486         ?C0240:
                                           ; SOURCE LINE # 1215
0486 120000      E     LCALL   UART_ReadTxStatus
0489 EF                MOV     A,R7
048A 30E103            JNB     ACC.1,$ + 6H
048D 020000      R     LJMP    ?C0412
0490 80F4              SJMP    ?C0240
0492         ?C0241:
                                           ; SOURCE LINE # 1216
0492 22                RET     
0493         ?C0239:
                                           ; SOURCE LINE # 1218
                                           ; SOURCE LINE # 1219
0493 900000      R     MOV     DPTR,#i
0496 E4                CLR     A
0497 F0                MOVX    @DPTR,A
0498         ?C0243:
0498 900000      R     MOV     DPTR,#i
049B E0                MOVX    A,@DPTR
049C FF                MOV     R7,A
049D EF                MOV     A,R7
049E D3                SETB    C
049F 941F              SUBB    A,#01FH
04A1 5019              JNC     ?C0244
                                           ; SOURCE LINE # 1220
04A3 900000      R     MOV     DPTR,#i
04A6 E0                MOVX    A,@DPTR
04A7 FF                MOV     R7,A
04A8 7400        E     MOV     A,#LOW rx_word
04AA 2F                ADD     A,R7
04AB F582              MOV     DPL,A
04AD E4                CLR     A
04AE 3400        E     ADDC    A,#HIGH rx_word
04B0 F583              MOV     DPH,A
04B2 E4                CLR     A
04B3 F0                MOVX    @DPTR,A
                                           ; SOURCE LINE # 1221
04B4 900000      R     MOV     DPTR,#i
04B7 E0                MOVX    A,@DPTR
04B8 04                INC     A
04B9 F0                MOVX    @DPTR,A
04BA 80DC              SJMP    ?C0243
04BC         ?C0244:
                                           ; SOURCE LINE # 1222
04BC 900000      R     MOV     DPTR,#dat_cnt
04BF E4                CLR     A
04C0 F0                MOVX    @DPTR,A
                                           ; SOURCE LINE # 1223
04C1 900000      R     MOV     DPTR,#cmd_exct
04C4 E4                CLR     A
04C5 F0                MOVX    @DPTR,A
                                           ; SOURCE LINE # 1225
04C6 7BFF              MOV     R3,#0FFH
04C8 7A00        R     MOV     R2,#HIGH ?SC_47
04CA 7900        R     MOV     R1,#LOW ?SC_47
04CC 120000      E     LCALL   _UART_PutString
04CF         ?C0246:
                                           ; SOURCE LINE # 1226
C51 COMPILER V9.51   TASK1                                                                 07/01/2014 18:20:50 PAGE 100 

04CF 120000      E     LCALL   UART_ReadTxStatus
04D2 EF                MOV     A,R7
04D3 30E103            JNB     ACC.1,$ + 6H
04D6 020000      R     LJMP    ?C0412
04D9 80F4              SJMP    ?C0246
04DB         ?C0247:
                                           ; SOURCE LINE # 1227
                                           ; SOURCE LINE # 1229
04DB 22                RET     
                                           ; SOURCE LINE # 1231
04DC         ?C0248:
                                           ; SOURCE LINE # 1233
04DC 120000      R     LCALL   Relays_Init
                                           ; SOURCE LINE # 1235
04DF 7BFF              MOV     R3,#0FFH
04E1 7A00        R     MOV     R2,#HIGH ?SC_0
04E3 7900        R     MOV     R1,#LOW ?SC_0
04E5 120000      E     LCALL   _UART_PutString
04E8         ?C0249:
                                           ; SOURCE LINE # 1236
04E8 120000      E     LCALL   UART_ReadTxStatus
04EB EF                MOV     A,R7
04EC 30E103            JNB     ACC.1,$ + 6H
04EF 020000      R     LJMP    ?C0412
04F2 80F4              SJMP    ?C0249
04F4         ?C0250:
                                           ; SOURCE LINE # 1238
04F4 22                RET     
                                           ; SOURCE LINE # 1240
04F5         ?C0251:
                                           ; SOURCE LINE # 1242
04F5 7BFF              MOV     R3,#0FFH
04F7 7A00        R     MOV     R2,#HIGH ?SC_0
04F9 7900        R     MOV     R1,#LOW ?SC_0
04FB 120000      E     LCALL   _UART_PutString
04FE         ?C0252:
                                           ; SOURCE LINE # 1243
04FE 120000      E     LCALL   UART_ReadTxStatus
0501 EF                MOV     A,R7
0502 30E1F9            JNB     ACC.1,?C0252
0505         ?C0253:
                                           ; SOURCE LINE # 1245
0505 900000      R     MOV     DPTR,#RLY_PRT_STS
0508 E4                CLR     A
0509 F0                MOVX    @DPTR,A
                                           ; SOURCE LINE # 1247
050A 905015            MOV     DPTR,#05015H
050D E0                MOVX    A,@DPTR
050E FF                MOV     R7,A
050F EF                MOV     A,R7
0510 30E410            JNB     ACC.4,?C0254
                                           ; SOURCE LINE # 1248
0513 900000      R     MOV     DPTR,#RLY_PRT_STS
0516 E0                MOVX    A,@DPTR
0517 FF                MOV     R7,A
0518 EF                MOV     A,R7
0519 4401              ORL     A,#01H
051B FF                MOV     R7,A
051C 900000      R     MOV     DPTR,#RLY_PRT_STS
051F EF                MOV     A,R7
0520 F0                MOVX    @DPTR,A
0521 800E              SJMP    ?C0255
C51 COMPILER V9.51   TASK1                                                                 07/01/2014 18:20:50 PAGE 101 

0523         ?C0254:
                                           ; SOURCE LINE # 1250
0523 900000      R     MOV     DPTR,#RLY_PRT_STS
0526 E0                MOVX    A,@DPTR
0527 FF                MOV     R7,A
0528 EF                MOV     A,R7
0529 54FE              ANL     A,#0FEH
052B FF                MOV     R7,A
052C 900000      R     MOV     DPTR,#RLY_PRT_STS
052F EF                MOV     A,R7
0530 F0                MOVX    @DPTR,A
0531         ?C0255:
                                           ; SOURCE LINE # 1252
0531 905014            MOV     DPTR,#05014H
0534 E0                MOVX    A,@DPTR
0535 FF                MOV     R7,A
0536 EF                MOV     A,R7
0537 30E410            JNB     ACC.4,?C0256
                                           ; SOURCE LINE # 1253
053A 900000      R     MOV     DPTR,#RLY_PRT_STS
053D E0                MOVX    A,@DPTR
053E FF                MOV     R7,A
053F EF                MOV     A,R7
0540 4402              ORL     A,#02H
0542 FF                MOV     R7,A
0543 900000      R     MOV     DPTR,#RLY_PRT_STS
0546 EF                MOV     A,R7
0547 F0                MOVX    @DPTR,A
0548 800E              SJMP    ?C0257
054A         ?C0256:
                                           ; SOURCE LINE # 1255
054A 900000      R     MOV     DPTR,#RLY_PRT_STS
054D E0                MOVX    A,@DPTR
054E FF                MOV     R7,A
054F EF                MOV     A,R7
0550 54FD              ANL     A,#0FDH
0552 FF                MOV     R7,A
0553 900000      R     MOV     DPTR,#RLY_PRT_STS
0556 EF                MOV     A,R7
0557 F0                MOVX    @DPTR,A
0558         ?C0257:
                                           ; SOURCE LINE # 1257
0558 905012            MOV     DPTR,#05012H
055B E0                MOVX    A,@DPTR
055C FF                MOV     R7,A
055D EF                MOV     A,R7
055E 30E410            JNB     ACC.4,?C0258
                                           ; SOURCE LINE # 1258
0561 900000      R     MOV     DPTR,#RLY_PRT_STS
0564 E0                MOVX    A,@DPTR
0565 FF                MOV     R7,A
0566 EF                MOV     A,R7
0567 4404              ORL     A,#04H
0569 FF                MOV     R7,A
056A 900000      R     MOV     DPTR,#RLY_PRT_STS
056D EF                MOV     A,R7
056E F0                MOVX    @DPTR,A
056F 800E              SJMP    ?C0259
0571         ?C0258:
                                           ; SOURCE LINE # 1260
0571 900000      R     MOV     DPTR,#RLY_PRT_STS
0574 E0                MOVX    A,@DPTR
C51 COMPILER V9.51   TASK1                                                                 07/01/2014 18:20:50 PAGE 102 

0575 FF                MOV     R7,A
0576 EF                MOV     A,R7
0577 54FB              ANL     A,#0FBH
0579 FF                MOV     R7,A
057A 900000      R     MOV     DPTR,#RLY_PRT_STS
057D EF                MOV     A,R7
057E F0                MOVX    @DPTR,A
057F         ?C0259:
                                           ; SOURCE LINE # 1262
057F 905013            MOV     DPTR,#05013H
0582 E0                MOVX    A,@DPTR
0583 FF                MOV     R7,A
0584 EF                MOV     A,R7
0585 30E410            JNB     ACC.4,?C0260
                                           ; SOURCE LINE # 1263
0588 900000      R     MOV     DPTR,#RLY_PRT_STS
058B E0                MOVX    A,@DPTR
058C FF                MOV     R7,A
058D EF                MOV     A,R7
058E 4408              ORL     A,#08H
0590 FF                MOV     R7,A
0591 900000      R     MOV     DPTR,#RLY_PRT_STS
0594 EF                MOV     A,R7
0595 F0                MOVX    @DPTR,A
0596 800E              SJMP    ?C0261
0598         ?C0260:
                                           ; SOURCE LINE # 1265
0598 900000      R     MOV     DPTR,#RLY_PRT_STS
059B E0                MOVX    A,@DPTR
059C FF                MOV     R7,A
059D EF                MOV     A,R7
059E 54F7              ANL     A,#0F7H
05A0 FF                MOV     R7,A
05A1 900000      R     MOV     DPTR,#RLY_PRT_STS
05A4 EF                MOV     A,R7
05A5 F0                MOVX    @DPTR,A
05A6         ?C0261:
                                           ; SOURCE LINE # 1267
05A6 905011            MOV     DPTR,#05011H
05A9 E0                MOVX    A,@DPTR
05AA FF                MOV     R7,A
05AB EF                MOV     A,R7
05AC 30E410            JNB     ACC.4,?C0262
                                           ; SOURCE LINE # 1268
05AF 900000      R     MOV     DPTR,#RLY_PRT_STS
05B2 E0                MOVX    A,@DPTR
05B3 FF                MOV     R7,A
05B4 EF                MOV     A,R7
05B5 4410              ORL     A,#010H
05B7 FF                MOV     R7,A
05B8 900000      R     MOV     DPTR,#RLY_PRT_STS
05BB EF                MOV     A,R7
05BC F0                MOVX    @DPTR,A
05BD 800E              SJMP    ?C0263
05BF         ?C0262:
                                           ; SOURCE LINE # 1270
05BF 900000      R     MOV     DPTR,#RLY_PRT_STS
05C2 E0                MOVX    A,@DPTR
05C3 FF                MOV     R7,A
05C4 EF                MOV     A,R7
05C5 54EF              ANL     A,#0EFH
05C7 FF                MOV     R7,A
C51 COMPILER V9.51   TASK1                                                                 07/01/2014 18:20:50 PAGE 103 

05C8 900000      R     MOV     DPTR,#RLY_PRT_STS
05CB EF                MOV     A,R7
05CC F0                MOVX    @DPTR,A
05CD         ?C0263:
                                           ; SOURCE LINE # 1273
05CD 900000      R     MOV     DPTR,#RLY_PRT_STS
05D0 E0                MOVX    A,@DPTR
05D1 FF                MOV     R7,A
05D2 EF                MOV     A,R7
05D3 541F              ANL     A,#01FH
05D5 FF                MOV     R7,A
05D6 900000      R     MOV     DPTR,#RLY_PRT_STS
05D9 EF                MOV     A,R7
05DA F0                MOVX    @DPTR,A
                                           ; SOURCE LINE # 1274
05DB 120000      E     LCALL   UART_ClearTxBuffer
                                           ; SOURCE LINE # 1275
05DE 900000      R     MOV     DPTR,#RLY_PRT_STS
05E1 E0                MOVX    A,@DPTR
05E2 FF                MOV     R7,A
05E3 120000      E     LCALL   _UART_WriteTxData
05E6         ?C0264:
                                           ; SOURCE LINE # 1276
05E6 120000      E     LCALL   UART_ReadTxStatus
05E9 EF                MOV     A,R7
05EA 30E103            JNB     ACC.1,$ + 6H
05ED 020000      R     LJMP    ?C0412
05F0 80F4              SJMP    ?C0264
05F2         ?C0265:
                                           ; SOURCE LINE # 1278
05F2 22                RET     
                                           ; SOURCE LINE # 1280
05F3         ?C0266:
                                           ; SOURCE LINE # 1282
05F3 7BFF              MOV     R3,#0FFH
05F5 7A00        R     MOV     R2,#HIGH ?SC_0
05F7 7900        R     MOV     R1,#LOW ?SC_0
05F9 120000      E     LCALL   _UART_PutString
05FC         ?C0267:
                                           ; SOURCE LINE # 1283
05FC 120000      E     LCALL   UART_ReadTxStatus
05FF EF                MOV     A,R7
0600 30E1F9            JNB     ACC.1,?C0267
0603         ?C0268:
                                           ; SOURCE LINE # 1285
0603 900000      R     MOV     DPTR,#RLY_PRT_STS
0606 E4                CLR     A
0607 F0                MOVX    @DPTR,A
                                           ; SOURCE LINE # 1287
0608 905016            MOV     DPTR,#05016H
060B E0                MOVX    A,@DPTR
060C FF                MOV     R7,A
060D EF                MOV     A,R7
060E 30E410            JNB     ACC.4,?C0269
                                           ; SOURCE LINE # 1288
0611 900000      R     MOV     DPTR,#RLY_PRT_STS
0614 E0                MOVX    A,@DPTR
0615 FF                MOV     R7,A
0616 EF                MOV     A,R7
0617 4401              ORL     A,#01H
0619 FF                MOV     R7,A
061A 900000      R     MOV     DPTR,#RLY_PRT_STS
C51 COMPILER V9.51   TASK1                                                                 07/01/2014 18:20:50 PAGE 104 

061D EF                MOV     A,R7
061E F0                MOVX    @DPTR,A
061F 800E              SJMP    ?C0270
0621         ?C0269:
                                           ; SOURCE LINE # 1290
0621 900000      R     MOV     DPTR,#RLY_PRT_STS
0624 E0                MOVX    A,@DPTR
0625 FF                MOV     R7,A
0626 EF                MOV     A,R7
0627 54FE              ANL     A,#0FEH
0629 FF                MOV     R7,A
062A 900000      R     MOV     DPTR,#RLY_PRT_STS
062D EF                MOV     A,R7
062E F0                MOVX    @DPTR,A
062F         ?C0270:
                                           ; SOURCE LINE # 1293
062F 905017            MOV     DPTR,#05017H
0632 E0                MOVX    A,@DPTR
0633 FF                MOV     R7,A
0634 EF                MOV     A,R7
0635 30E410            JNB     ACC.4,?C0271
                                           ; SOURCE LINE # 1294
0638 900000      R     MOV     DPTR,#RLY_PRT_STS
063B E0                MOVX    A,@DPTR
063C FF                MOV     R7,A
063D EF                MOV     A,R7
063E 4402              ORL     A,#02H
0640 FF                MOV     R7,A
0641 900000      R     MOV     DPTR,#RLY_PRT_STS
0644 EF                MOV     A,R7
0645 F0                MOVX    @DPTR,A
0646 800E              SJMP    ?C0272
0648         ?C0271:
                                           ; SOURCE LINE # 1296
0648 900000      R     MOV     DPTR,#RLY_PRT_STS
064B E0                MOVX    A,@DPTR
064C FF                MOV     R7,A
064D EF                MOV     A,R7
064E 54FD              ANL     A,#0FDH
0650 FF                MOV     R7,A
0651 900000      R     MOV     DPTR,#RLY_PRT_STS
0654 EF                MOV     A,R7
0655 F0                MOVX    @DPTR,A
0656         ?C0272:
                                           ; SOURCE LINE # 1298
0656 905064            MOV     DPTR,#05064H
0659 E0                MOVX    A,@DPTR
065A FF                MOV     R7,A
065B EF                MOV     A,R7
065C 30E410            JNB     ACC.4,?C0273
                                           ; SOURCE LINE # 1299
065F 900000      R     MOV     DPTR,#RLY_PRT_STS
0662 E0                MOVX    A,@DPTR
0663 FF                MOV     R7,A
0664 EF                MOV     A,R7
0665 4404              ORL     A,#04H
0667 FF                MOV     R7,A
0668 900000      R     MOV     DPTR,#RLY_PRT_STS
066B EF                MOV     A,R7
066C F0                MOVX    @DPTR,A
066D 800E              SJMP    ?C0274
066F         ?C0273:
C51 COMPILER V9.51   TASK1                                                                 07/01/2014 18:20:50 PAGE 105 

                                           ; SOURCE LINE # 1301
066F 900000      R     MOV     DPTR,#RLY_PRT_STS
0672 E0                MOVX    A,@DPTR
0673 FF                MOV     R7,A
0674 EF                MOV     A,R7
0675 54FB              ANL     A,#0FBH
0677 FF                MOV     R7,A
0678 900000      R     MOV     DPTR,#RLY_PRT_STS
067B EF                MOV     A,R7
067C F0                MOVX    @DPTR,A
067D         ?C0274:
                                           ; SOURCE LINE # 1303
067D 905065            MOV     DPTR,#05065H
0680 E0                MOVX    A,@DPTR
0681 FF                MOV     R7,A
0682 EF                MOV     A,R7
0683 30E410            JNB     ACC.4,?C0275
                                           ; SOURCE LINE # 1304
0686 900000      R     MOV     DPTR,#RLY_PRT_STS
0689 E0                MOVX    A,@DPTR
068A FF                MOV     R7,A
068B EF                MOV     A,R7
068C 4408              ORL     A,#08H
068E FF                MOV     R7,A
068F 900000      R     MOV     DPTR,#RLY_PRT_STS
0692 EF                MOV     A,R7
0693 F0                MOVX    @DPTR,A
0694 800E              SJMP    ?C0276
0696         ?C0275:
                                           ; SOURCE LINE # 1306
0696 900000      R     MOV     DPTR,#RLY_PRT_STS
0699 E0                MOVX    A,@DPTR
069A FF                MOV     R7,A
069B EF                MOV     A,R7
069C 54F7              ANL     A,#0F7H
069E FF                MOV     R7,A
069F 900000      R     MOV     DPTR,#RLY_PRT_STS
06A2 EF                MOV     A,R7
06A3 F0                MOVX    @DPTR,A
06A4         ?C0276:
                                           ; SOURCE LINE # 1308
06A4 905034            MOV     DPTR,#05034H
06A7 E0                MOVX    A,@DPTR
06A8 FF                MOV     R7,A
06A9 EF                MOV     A,R7
06AA 30E410            JNB     ACC.4,?C0277
                                           ; SOURCE LINE # 1309
06AD 900000      R     MOV     DPTR,#RLY_PRT_STS
06B0 E0                MOVX    A,@DPTR
06B1 FF                MOV     R7,A
06B2 EF                MOV     A,R7
06B3 4410              ORL     A,#010H
06B5 FF                MOV     R7,A
06B6 900000      R     MOV     DPTR,#RLY_PRT_STS
06B9 EF                MOV     A,R7
06BA F0                MOVX    @DPTR,A
06BB 800E              SJMP    ?C0278
06BD         ?C0277:
                                           ; SOURCE LINE # 1311
06BD 900000      R     MOV     DPTR,#RLY_PRT_STS
06C0 E0                MOVX    A,@DPTR
06C1 FF                MOV     R7,A
C51 COMPILER V9.51   TASK1                                                                 07/01/2014 18:20:50 PAGE 106 

06C2 EF                MOV     A,R7
06C3 54EF              ANL     A,#0EFH
06C5 FF                MOV     R7,A
06C6 900000      R     MOV     DPTR,#RLY_PRT_STS
06C9 EF                MOV     A,R7
06CA F0                MOVX    @DPTR,A
06CB         ?C0278:
                                           ; SOURCE LINE # 1313
06CB 905033            MOV     DPTR,#05033H
06CE E0                MOVX    A,@DPTR
06CF FF                MOV     R7,A
06D0 EF                MOV     A,R7
06D1 30E410            JNB     ACC.4,?C0279
                                           ; SOURCE LINE # 1314
06D4 900000      R     MOV     DPTR,#RLY_PRT_STS
06D7 E0                MOVX    A,@DPTR
06D8 FF                MOV     R7,A
06D9 EF                MOV     A,R7
06DA 4420              ORL     A,#020H
06DC FF                MOV     R7,A
06DD 900000      R     MOV     DPTR,#RLY_PRT_STS
06E0 EF                MOV     A,R7
06E1 F0                MOVX    @DPTR,A
06E2 800E              SJMP    ?C0280
06E4         ?C0279:
                                           ; SOURCE LINE # 1316
06E4 900000      R     MOV     DPTR,#RLY_PRT_STS
06E7 E0                MOVX    A,@DPTR
06E8 FF                MOV     R7,A
06E9 EF                MOV     A,R7
06EA 54DF              ANL     A,#0DFH
06EC FF                MOV     R7,A
06ED 900000      R     MOV     DPTR,#RLY_PRT_STS
06F0 EF                MOV     A,R7
06F1 F0                MOVX    @DPTR,A
06F2         ?C0280:
                                           ; SOURCE LINE # 1318
06F2 900000      R     MOV     DPTR,#RLY_PRT_STS
06F5 E0                MOVX    A,@DPTR
06F6 FF                MOV     R7,A
06F7 EF                MOV     A,R7
06F8 543F              ANL     A,#03FH
06FA FF                MOV     R7,A
06FB 900000      R     MOV     DPTR,#RLY_PRT_STS
06FE EF                MOV     A,R7
06FF F0                MOVX    @DPTR,A
                                           ; SOURCE LINE # 1319
0700 120000      E     LCALL   UART_ClearTxBuffer
                                           ; SOURCE LINE # 1320
0703 900000      R     MOV     DPTR,#RLY_PRT_STS
0706 E0                MOVX    A,@DPTR
0707 FF                MOV     R7,A
0708 120000      E     LCALL   _UART_WriteTxData
070B         ?C0281:
                                           ; SOURCE LINE # 1321
070B 120000      E     LCALL   UART_ReadTxStatus
070E EF                MOV     A,R7
070F 30E103            JNB     ACC.1,$ + 6H
0712 020000      R     LJMP    ?C0412
0715 80F4              SJMP    ?C0281
0717         ?C0282:
                                           ; SOURCE LINE # 1323
C51 COMPILER V9.51   TASK1                                                                 07/01/2014 18:20:50 PAGE 107 

0717 22                RET     
                                           ; SOURCE LINE # 1324
0718         ?C0283:
                                           ; SOURCE LINE # 1327
0718 905033            MOV     DPTR,#05033H
071B E0                MOVX    A,@DPTR
071C FF                MOV     R7,A
071D EF                MOV     A,R7
071E 4401              ORL     A,#01H
0720 FF                MOV     R7,A
0721 EF                MOV     A,R7
0722 F0                MOVX    @DPTR,A
                                           ; SOURCE LINE # 1329
0723 7BFF              MOV     R3,#0FFH
0725 7A00        R     MOV     R2,#HIGH ?SC_52
0727 7900        R     MOV     R1,#LOW ?SC_52
0729 120000      E     LCALL   _UART_PutString
072C         ?C0284:
                                           ; SOURCE LINE # 1330
072C 120000      E     LCALL   UART_ReadTxStatus
072F EF                MOV     A,R7
0730 30E103            JNB     ACC.1,$ + 6H
0733 020000      R     LJMP    ?C0412
0736 80F4              SJMP    ?C0284
0738         ?C0285:
                                           ; SOURCE LINE # 1333
0738 22                RET     
                                           ; SOURCE LINE # 1334
0739         ?C0286:
                                           ; SOURCE LINE # 1336
0739 905033            MOV     DPTR,#05033H
073C E0                MOVX    A,@DPTR
073D FF                MOV     R7,A
073E EF                MOV     A,R7
073F 54FE              ANL     A,#0FEH
0741 FF                MOV     R7,A
0742 EF                MOV     A,R7
0743 F0                MOVX    @DPTR,A
                                           ; SOURCE LINE # 1338
0744 7BFF              MOV     R3,#0FFH
0746 7A00        R     MOV     R2,#HIGH ?SC_58
0748 7900        R     MOV     R1,#LOW ?SC_58
074A 120000      E     LCALL   _UART_PutString
074D         ?C0287:
                                           ; SOURCE LINE # 1339
074D 120000      E     LCALL   UART_ReadTxStatus
0750 EF                MOV     A,R7
0751 30E103            JNB     ACC.1,$ + 6H
0754 020000      R     LJMP    ?C0412
0757 80F4              SJMP    ?C0287
0759         ?C0288:
                                           ; SOURCE LINE # 1342
0759 22                RET     
                                           ; SOURCE LINE # 1343
075A         ?C0289:
                                           ; SOURCE LINE # 1345
075A 900000      R     MOV     DPTR,#cmd+01H
075D E4                CLR     A
075E 75F001            MOV     B,#01H
0761 120000      E     LCALL   ?C?IILDX
                                           ; SOURCE LINE # 1346
0764 900000      R     MOV     DPTR,#cmd
C51 COMPILER V9.51   TASK1                                                                 07/01/2014 18:20:50 PAGE 108 

0767 120000      E     LCALL   ?C?PLDXDATA
076A 120000      E     LCALL   ?C?CLDPTR
076D FF                MOV     R7,A
076E EF                MOV     A,R7
076F 6401              XRL     A,#01H
0771 7025              JNZ     ?C0290
                                           ; SOURCE LINE # 1347
0773 120000      E     LCALL   UART_Stop
                                           ; SOURCE LINE # 1348
0776 7D01              MOV     R5,#01H
0778 7F9B              MOV     R7,#09BH
077A 7E00              MOV     R6,#00H
077C 120000      E     LCALL   _U_CLOCK_SetDividerRegister
                                           ; SOURCE LINE # 1349
077F 120000      E     LCALL   UART_Start
                                           ; SOURCE LINE # 1351
0782 7BFF              MOV     R3,#0FFH
0784 7A00        R     MOV     R2,#HIGH ?SC_0
0786 7900        R     MOV     R1,#LOW ?SC_0
0788 120000      E     LCALL   _UART_PutString
078B         ?C0291:
                                           ; SOURCE LINE # 1352
078B 120000      E     LCALL   UART_ReadTxStatus
078E EF                MOV     A,R7
078F 30E103            JNB     ACC.1,$ + 6H
0792 020000      R     LJMP    ?C0412
0795 80F4              SJMP    ?C0291
0797         ?C0292:
                                           ; SOURCE LINE # 1353
0797 22                RET     
0798         ?C0290:
                                           ; SOURCE LINE # 1354
0798 900000      R     MOV     DPTR,#cmd
079B 120000      E     LCALL   ?C?PLDXDATA
079E 120000      E     LCALL   ?C?CLDPTR
07A1 FF                MOV     R7,A
07A2 EF                MOV     A,R7
07A3 6402              XRL     A,#02H
07A5 7025              JNZ     ?C0294
                                           ; SOURCE LINE # 1355
07A7 120000      E     LCALL   UART_Stop
                                           ; SOURCE LINE # 1356
07AA 7D01              MOV     R5,#01H
07AC 7F4D              MOV     R7,#04DH
07AE 7E00              MOV     R6,#00H
07B0 120000      E     LCALL   _U_CLOCK_SetDividerRegister
                                           ; SOURCE LINE # 1357
07B3 120000      E     LCALL   UART_Start
                                           ; SOURCE LINE # 1359
07B6 7BFF              MOV     R3,#0FFH
07B8 7A00        R     MOV     R2,#HIGH ?SC_0
07BA 7900        R     MOV     R1,#LOW ?SC_0
07BC 120000      E     LCALL   _UART_PutString
07BF         ?C0295:
                                           ; SOURCE LINE # 1360
07BF 120000      E     LCALL   UART_ReadTxStatus
07C2 EF                MOV     A,R7
07C3 30E103            JNB     ACC.1,$ + 6H
07C6 020000      R     LJMP    ?C0412
                                           ; SOURCE LINE # 1362
07C9 80F4              SJMP    ?C0295
07CB         ?C0296:
C51 COMPILER V9.51   TASK1                                                                 07/01/2014 18:20:50 PAGE 109 

                                           ; SOURCE LINE # 1363
07CB 22                RET     
07CC         ?C0294:
                                           ; SOURCE LINE # 1364
07CC 900000      R     MOV     DPTR,#cmd
07CF 120000      E     LCALL   ?C?PLDXDATA
07D2 120000      E     LCALL   ?C?CLDPTR
07D5 FF                MOV     R7,A
07D6 EF                MOV     A,R7
07D7 6403              XRL     A,#03H
07D9 7025              JNZ     ?C0298
                                           ; SOURCE LINE # 1365
07DB 120000      E     LCALL   UART_Stop
                                           ; SOURCE LINE # 1366
07DE 7D01              MOV     R5,#01H
07E0 7F25              MOV     R7,#025H
07E2 7E00              MOV     R6,#00H
07E4 120000      E     LCALL   _U_CLOCK_SetDividerRegister
                                           ; SOURCE LINE # 1367
07E7 120000      E     LCALL   UART_Start
                                           ; SOURCE LINE # 1369
07EA 7BFF              MOV     R3,#0FFH
07EC 7A00        R     MOV     R2,#HIGH ?SC_0
07EE 7900        R     MOV     R1,#LOW ?SC_0
07F0 120000      E     LCALL   _UART_PutString
07F3         ?C0299:
                                           ; SOURCE LINE # 1370
07F3 120000      E     LCALL   UART_ReadTxStatus
07F6 EF                MOV     A,R7
07F7 30E103            JNB     ACC.1,$ + 6H
07FA 020000      R     LJMP    ?C0412
                                           ; SOURCE LINE # 1372
07FD 80F4              SJMP    ?C0299
07FF         ?C0300:
                                           ; SOURCE LINE # 1373
07FF 22                RET     
0800         ?C0298:
                                           ; SOURCE LINE # 1374
0800 900000      R     MOV     DPTR,#cmd
0803 120000      E     LCALL   ?C?PLDXDATA
0806 120000      E     LCALL   ?C?CLDPTR
0809 FF                MOV     R7,A
080A EF                MOV     A,R7
080B 6404              XRL     A,#04H
080D 7025              JNZ     ?C0302
                                           ; SOURCE LINE # 1375
080F 120000      E     LCALL   UART_Stop
                                           ; SOURCE LINE # 1376
0812 7D01              MOV     R5,#01H
0814 7F19              MOV     R7,#019H
0816 7E00              MOV     R6,#00H
0818 120000      E     LCALL   _U_CLOCK_SetDividerRegister
                                           ; SOURCE LINE # 1377
081B 120000      E     LCALL   UART_Start
                                           ; SOURCE LINE # 1379
081E 7BFF              MOV     R3,#0FFH
0820 7A00        R     MOV     R2,#HIGH ?SC_0
0822 7900        R     MOV     R1,#LOW ?SC_0
0824 120000      E     LCALL   _UART_PutString
0827         ?C0303:
                                           ; SOURCE LINE # 1380
0827 120000      E     LCALL   UART_ReadTxStatus
C51 COMPILER V9.51   TASK1                                                                 07/01/2014 18:20:50 PAGE 110 

082A EF                MOV     A,R7
082B 30E103            JNB     ACC.1,$ + 6H
082E 020000      R     LJMP    ?C0412
                                           ; SOURCE LINE # 1382
0831 80F4              SJMP    ?C0303
0833         ?C0304:
                                           ; SOURCE LINE # 1383
0833 22                RET     
0834         ?C0302:
                                           ; SOURCE LINE # 1384
0834 900000      R     MOV     DPTR,#cmd
0837 120000      E     LCALL   ?C?PLDXDATA
083A 120000      E     LCALL   ?C?CLDPTR
083D FF                MOV     R7,A
083E EF                MOV     A,R7
083F 6405              XRL     A,#05H
0841 7025              JNZ     ?C0306
                                           ; SOURCE LINE # 1385
0843 120000      E     LCALL   UART_Stop
                                           ; SOURCE LINE # 1386
0846 7D01              MOV     R5,#01H
0848 7F0C              MOV     R7,#0CH
084A 7E00              MOV     R6,#00H
084C 120000      E     LCALL   _U_CLOCK_SetDividerRegister
                                           ; SOURCE LINE # 1387
084F 120000      E     LCALL   UART_Start
                                           ; SOURCE LINE # 1389
0852 7BFF              MOV     R3,#0FFH
0854 7A00        R     MOV     R2,#HIGH ?SC_0
0856 7900        R     MOV     R1,#LOW ?SC_0
0858 120000      E     LCALL   _UART_PutString
085B         ?C0307:
                                           ; SOURCE LINE # 1390
085B 120000      E     LCALL   UART_ReadTxStatus
085E EF                MOV     A,R7
085F 30E103            JNB     ACC.1,$ + 6H
0862 020000      R     LJMP    ?C0412
                                           ; SOURCE LINE # 1392
0865 80F4              SJMP    ?C0307
0867         ?C0308:
                                           ; SOURCE LINE # 1393
0867 22                RET     
0868         ?C0306:
                                           ; SOURCE LINE # 1394
0868 900000      R     MOV     DPTR,#cmd
086B 120000      E     LCALL   ?C?PLDXDATA
086E 120000      E     LCALL   ?C?CLDPTR
0871 FF                MOV     R7,A
0872 EF                MOV     A,R7
0873 B40F16            CJNE    A,#0FH,?C0310
                                           ; SOURCE LINE # 1397
0876 7BFF              MOV     R3,#0FFH
0878 7A00        R     MOV     R2,#HIGH ?SC_0
087A 7900        R     MOV     R1,#LOW ?SC_0
087C 120000      E     LCALL   _UART_PutString
087F         ?C0311:
                                           ; SOURCE LINE # 1398
087F 120000      E     LCALL   UART_ReadTxStatus
0882 EF                MOV     A,R7
0883 30E103            JNB     ACC.1,$ + 6H
0886 020000      R     LJMP    ?C0412
                                           ; SOURCE LINE # 1400
C51 COMPILER V9.51   TASK1                                                                 07/01/2014 18:20:50 PAGE 111 

0889 80F4              SJMP    ?C0311
088B         ?C0312:
                                           ; SOURCE LINE # 1401
088B 22                RET     
088C         ?C0310:
                                           ; SOURCE LINE # 1402
                                           ; SOURCE LINE # 1403
088C 900000      R     MOV     DPTR,#i
088F E4                CLR     A
0890 F0                MOVX    @DPTR,A
0891         ?C0314:
0891 900000      R     MOV     DPTR,#i
0894 E0                MOVX    A,@DPTR
0895 FF                MOV     R7,A
0896 EF                MOV     A,R7
0897 D3                SETB    C
0898 941F              SUBB    A,#01FH
089A 5019              JNC     ?C0315
                                           ; SOURCE LINE # 1404
089C 900000      R     MOV     DPTR,#i
089F E0                MOVX    A,@DPTR
08A0 FF                MOV     R7,A
08A1 7400        E     MOV     A,#LOW rx_word
08A3 2F                ADD     A,R7
08A4 F582              MOV     DPL,A
08A6 E4                CLR     A
08A7 3400        E     ADDC    A,#HIGH rx_word
08A9 F583              MOV     DPH,A
08AB E4                CLR     A
08AC F0                MOVX    @DPTR,A
                                           ; SOURCE LINE # 1405
08AD 900000      R     MOV     DPTR,#i
08B0 E0                MOVX    A,@DPTR
08B1 04                INC     A
08B2 F0                MOVX    @DPTR,A
08B3 80DC              SJMP    ?C0314
08B5         ?C0315:
                                           ; SOURCE LINE # 1406
08B5 900000      R     MOV     DPTR,#dat_cnt
08B8 E4                CLR     A
08B9 F0                MOVX    @DPTR,A
                                           ; SOURCE LINE # 1407
08BA 900000      R     MOV     DPTR,#cmd_exct
08BD E4                CLR     A
08BE F0                MOVX    @DPTR,A
                                           ; SOURCE LINE # 1409
08BF 7BFF              MOV     R3,#0FFH
08C1 7A00        R     MOV     R2,#HIGH ?SC_47
08C3 7900        R     MOV     R1,#LOW ?SC_47
08C5 120000      E     LCALL   _UART_PutString
08C8         ?C0317:
                                           ; SOURCE LINE # 1410
08C8 120000      E     LCALL   UART_ReadTxStatus
08CB EF                MOV     A,R7
08CC 30E103            JNB     ACC.1,$ + 6H
08CF 020000      R     LJMP    ?C0412
08D2 80F4              SJMP    ?C0317
08D4         ?C0318:
                                           ; SOURCE LINE # 1411
                                           ; SOURCE LINE # 1412
08D4 22                RET     
                                           ; SOURCE LINE # 1414
C51 COMPILER V9.51   TASK1                                                                 07/01/2014 18:20:50 PAGE 112 

08D5         ?C0319:
                                           ; SOURCE LINE # 1415
08D5 7FF4              MOV     R7,#0F4H
08D7 7E01              MOV     R6,#01H
08D9 120000      E     LCALL   _CyDelayUs
                                           ; SOURCE LINE # 1416
08DC 900000      R     MOV     DPTR,#cmd+01H
08DF E4                CLR     A
08E0 75F001            MOV     B,#01H
08E3 120000      E     LCALL   ?C?IILDX
                                           ; SOURCE LINE # 1418
08E6 900000      R     MOV     DPTR,#cmd
08E9 120000      E     LCALL   ?C?PLDXDATA
08EC 120000      E     LCALL   ?C?CLDPTR
08EF FF                MOV     R7,A
08F0 900000      R     MOV     DPTR,#localCMD
08F3 EF                MOV     A,R7
08F4 F0                MOVX    @DPTR,A
                                           ; SOURCE LINE # 1419
08F5 905033            MOV     DPTR,#05033H
08F8 E0                MOVX    A,@DPTR
08F9 FF                MOV     R7,A
08FA EF                MOV     A,R7
08FB 5410              ANL     A,#010H
08FD FF                MOV     R7,A
08FE 7E00              MOV     R6,#00H
0900 EF                MOV     A,R7
0901 4E                ORL     A,R6
0902 6003              JZ      $ + 5H
0904 020000      R     LJMP    ?C0320
                                           ; SOURCE LINE # 1420
0907 900000      R     MOV     DPTR,#cmd
090A 120000      E     LCALL   ?C?PLDXDATA
090D 120000      E     LCALL   ?C?CLDPTR
0910 FF                MOV     R7,A
0911 EF                MOV     A,R7
0912 120000      E     LCALL   ?C?CCASE
0915 0000        R     DW      ?C0322
0917 00                DB      00H
0918 0000        R     DW      ?C0325
091A 01                DB      01H
091B 0000        R     DW      ?C0328
091D 02                DB      02H
091E 0000        R     DW      ?C0331
0920 03                DB      03H
0921 0000        R     DW      ?C0334
0923 04                DB      04H
0924 0000        R     DW      ?C0337
0926 05                DB      05H
0927 0000        R     DW      ?C0340
0929 06                DB      06H
092A 0000        R     DW      ?C0343
092C 07                DB      07H
092D 0000        R     DW      ?C0346
092F 08                DB      08H
0930 0000        R     DW      ?C0349
0932 09                DB      09H
0933 0000        R     DW      ?C0352
0935 0A                DB      0AH
0936 0000        R     DW      ?C0355
0938 0B                DB      0BH
0939 0000        R     DW      ?C0358
C51 COMPILER V9.51   TASK1                                                                 07/01/2014 18:20:50 PAGE 113 

093B 0C                DB      0CH
093C 0000        R     DW      ?C0361
093E 0D                DB      0DH
093F 0000        R     DW      ?C0364
0941 0E                DB      0EH
0942 0000        R     DW      ?C0367
0944 0F                DB      0FH
0945 0000        R     DW      ?C0370
0947 10                DB      010H
0948 0000        R     DW      ?C0373
094A 11                DB      011H
094B 0000        R     DW      ?C0376
094D 12                DB      012H
094E 0000        R     DW      ?C0379
0950 13                DB      013H
0951 0000        R     DW      ?C0382
0953 14                DB      014H
0954 0000        R     DW      ?C0385
0956 15                DB      015H
0957 0000        R     DW      ?C0388
0959 16                DB      016H
095A 0000        R     DW      ?C0391
095C 17                DB      017H
095D 0000              DW      00H
095F 0000        R     DW      ?C0412
                                           ; SOURCE LINE # 1421
                                           ; SOURCE LINE # 1422
                                           ; SOURCE LINE # 1423
0961         ?C0322:
                                           ; SOURCE LINE # 1424
                                           ; SOURCE LINE # 1425
0961 905016            MOV     DPTR,#05016H
0964 E0                MOVX    A,@DPTR
0965 FF                MOV     R7,A
0966 EF                MOV     A,R7
0967 54FE              ANL     A,#0FEH
0969 FF                MOV     R7,A
096A EF                MOV     A,R7
096B F0                MOVX    @DPTR,A
                                           ; SOURCE LINE # 1426
096C 905017            MOV     DPTR,#05017H
096F E0                MOVX    A,@DPTR
0970 FF                MOV     R7,A
0971 EF                MOV     A,R7
0972 54FE              ANL     A,#0FEH
0974 FF                MOV     R7,A
0975 EF                MOV     A,R7
0976 F0                MOVX    @DPTR,A
                                           ; SOURCE LINE # 1427
0977 905064            MOV     DPTR,#05064H
097A E0                MOVX    A,@DPTR
097B FF                MOV     R7,A
097C EF                MOV     A,R7
097D 54FE              ANL     A,#0FEH
097F FF                MOV     R7,A
0980 EF                MOV     A,R7
0981 F0                MOVX    @DPTR,A
                                           ; SOURCE LINE # 1428
0982 905065            MOV     DPTR,#05065H
0985 E0                MOVX    A,@DPTR
0986 FF                MOV     R7,A
0987 EF                MOV     A,R7
C51 COMPILER V9.51   TASK1                                                                 07/01/2014 18:20:50 PAGE 114 

0988 54FE              ANL     A,#0FEH
098A FF                MOV     R7,A
098B EF                MOV     A,R7
098C F0                MOVX    @DPTR,A
                                           ; SOURCE LINE # 1429
098D 905034            MOV     DPTR,#05034H
0990 E0                MOVX    A,@DPTR
0991 FF                MOV     R7,A
0992 EF                MOV     A,R7
0993 54FE              ANL     A,#0FEH
0995 FF                MOV     R7,A
0996 EF                MOV     A,R7
0997 F0                MOVX    @DPTR,A
                                           ; SOURCE LINE # 1431
0998 7BFF              MOV     R3,#0FFH
099A 7A00        R     MOV     R2,#HIGH ?SC_64
099C 7900        R     MOV     R1,#LOW ?SC_64
099E 120000      E     LCALL   _UART_PutString
09A1         ?C0323:
                                           ; SOURCE LINE # 1432
09A1 120000      E     LCALL   UART_ReadTxStatus
09A4 EF                MOV     A,R7
09A5 30E103            JNB     ACC.1,$ + 6H
09A8 020000      R     LJMP    ?C0412
09AB 80F4              SJMP    ?C0323
09AD         ?C0324:
                                           ; SOURCE LINE # 1433
                                           ; SOURCE LINE # 1434
09AD 22                RET     
                                           ; SOURCE LINE # 1435
09AE         ?C0325:
                                           ; SOURCE LINE # 1436
                                           ; SOURCE LINE # 1437
09AE 905016            MOV     DPTR,#05016H
09B1 E0                MOVX    A,@DPTR
09B2 FF                MOV     R7,A
09B3 EF                MOV     A,R7
09B4 4401              ORL     A,#01H
09B6 FF                MOV     R7,A
09B7 EF                MOV     A,R7
09B8 F0                MOVX    @DPTR,A
                                           ; SOURCE LINE # 1438
09B9 905017            MOV     DPTR,#05017H
09BC E0                MOVX    A,@DPTR
09BD FF                MOV     R7,A
09BE EF                MOV     A,R7
09BF 54FE              ANL     A,#0FEH
09C1 FF                MOV     R7,A
09C2 EF                MOV     A,R7
09C3 F0                MOVX    @DPTR,A
                                           ; SOURCE LINE # 1439
09C4 905064            MOV     DPTR,#05064H
09C7 E0                MOVX    A,@DPTR
09C8 FF                MOV     R7,A
09C9 EF                MOV     A,R7
09CA 54FE              ANL     A,#0FEH
09CC FF                MOV     R7,A
09CD EF                MOV     A,R7
09CE F0                MOVX    @DPTR,A
                                           ; SOURCE LINE # 1440
09CF 905065            MOV     DPTR,#05065H
09D2 E0                MOVX    A,@DPTR
C51 COMPILER V9.51   TASK1                                                                 07/01/2014 18:20:50 PAGE 115 

09D3 FF                MOV     R7,A
09D4 EF                MOV     A,R7
09D5 54FE              ANL     A,#0FEH
09D7 FF                MOV     R7,A
09D8 EF                MOV     A,R7
09D9 F0                MOVX    @DPTR,A
                                           ; SOURCE LINE # 1441
09DA 905034            MOV     DPTR,#05034H
09DD E0                MOVX    A,@DPTR
09DE FF                MOV     R7,A
09DF EF                MOV     A,R7
09E0 54FE              ANL     A,#0FEH
09E2 FF                MOV     R7,A
09E3 EF                MOV     A,R7
09E4 F0                MOVX    @DPTR,A
                                           ; SOURCE LINE # 1443
09E5 7BFF              MOV     R3,#0FFH
09E7 7A00        R     MOV     R2,#HIGH ?SC_70
09E9 7900        R     MOV     R1,#LOW ?SC_70
09EB 120000      E     LCALL   _UART_PutString
09EE         ?C0326:
                                           ; SOURCE LINE # 1444
09EE 120000      E     LCALL   UART_ReadTxStatus
09F1 EF                MOV     A,R7
09F2 30E103            JNB     ACC.1,$ + 6H
09F5 020000      R     LJMP    ?C0412
09F8 80F4              SJMP    ?C0326
09FA         ?C0327:
                                           ; SOURCE LINE # 1445
                                           ; SOURCE LINE # 1446
09FA 22                RET     
                                           ; SOURCE LINE # 1447
09FB         ?C0328:
                                           ; SOURCE LINE # 1448
                                           ; SOURCE LINE # 1449
09FB 905016            MOV     DPTR,#05016H
09FE E0                MOVX    A,@DPTR
09FF FF                MOV     R7,A
0A00 EF                MOV     A,R7
0A01 54FE              ANL     A,#0FEH
0A03 FF                MOV     R7,A
0A04 EF                MOV     A,R7
0A05 F0                MOVX    @DPTR,A
                                           ; SOURCE LINE # 1450
0A06 905017            MOV     DPTR,#05017H
0A09 E0                MOVX    A,@DPTR
0A0A FF                MOV     R7,A
0A0B EF                MOV     A,R7
0A0C 4401              ORL     A,#01H
0A0E FF                MOV     R7,A
0A0F EF                MOV     A,R7
0A10 F0                MOVX    @DPTR,A
                                           ; SOURCE LINE # 1451
0A11 905064            MOV     DPTR,#05064H
0A14 E0                MOVX    A,@DPTR
0A15 FF                MOV     R7,A
0A16 EF                MOV     A,R7
0A17 54FE              ANL     A,#0FEH
0A19 FF                MOV     R7,A
0A1A EF                MOV     A,R7
0A1B F0                MOVX    @DPTR,A
                                           ; SOURCE LINE # 1452
C51 COMPILER V9.51   TASK1                                                                 07/01/2014 18:20:50 PAGE 116 

0A1C 905065            MOV     DPTR,#05065H
0A1F E0                MOVX    A,@DPTR
0A20 FF                MOV     R7,A
0A21 EF                MOV     A,R7
0A22 54FE              ANL     A,#0FEH
0A24 FF                MOV     R7,A
0A25 EF                MOV     A,R7
0A26 F0                MOVX    @DPTR,A
                                           ; SOURCE LINE # 1453
0A27 905034            MOV     DPTR,#05034H
0A2A E0                MOVX    A,@DPTR
0A2B FF                MOV     R7,A
0A2C EF                MOV     A,R7
0A2D 54FE              ANL     A,#0FEH
0A2F FF                MOV     R7,A
0A30 EF                MOV     A,R7
0A31 F0                MOVX    @DPTR,A
                                           ; SOURCE LINE # 1455
0A32 7BFF              MOV     R3,#0FFH
0A34 7A00        R     MOV     R2,#HIGH ?SC_76
0A36 7900        R     MOV     R1,#LOW ?SC_76
0A38 120000      E     LCALL   _UART_PutString
0A3B         ?C0329:
                                           ; SOURCE LINE # 1456
0A3B 120000      E     LCALL   UART_ReadTxStatus
0A3E EF                MOV     A,R7
0A3F 30E103            JNB     ACC.1,$ + 6H
0A42 020000      R     LJMP    ?C0412
0A45 80F4              SJMP    ?C0329
0A47         ?C0330:
                                           ; SOURCE LINE # 1457
                                           ; SOURCE LINE # 1458
0A47 22                RET     
                                           ; SOURCE LINE # 1459
0A48         ?C0331:
                                           ; SOURCE LINE # 1460
                                           ; SOURCE LINE # 1461
0A48 905016            MOV     DPTR,#05016H
0A4B E0                MOVX    A,@DPTR
0A4C FF                MOV     R7,A
0A4D EF                MOV     A,R7
0A4E 4401              ORL     A,#01H
0A50 FF                MOV     R7,A
0A51 EF                MOV     A,R7
0A52 F0                MOVX    @DPTR,A
                                           ; SOURCE LINE # 1462
0A53 905017            MOV     DPTR,#05017H
0A56 E0                MOVX    A,@DPTR
0A57 FF                MOV     R7,A
0A58 EF                MOV     A,R7
0A59 4401              ORL     A,#01H
0A5B FF                MOV     R7,A
0A5C EF                MOV     A,R7
0A5D F0                MOVX    @DPTR,A
                                           ; SOURCE LINE # 1463
0A5E 905064            MOV     DPTR,#05064H
0A61 E0                MOVX    A,@DPTR
0A62 FF                MOV     R7,A
0A63 EF                MOV     A,R7
0A64 54FE              ANL     A,#0FEH
0A66 FF                MOV     R7,A
0A67 EF                MOV     A,R7
C51 COMPILER V9.51   TASK1                                                                 07/01/2014 18:20:50 PAGE 117 

0A68 F0                MOVX    @DPTR,A
                                           ; SOURCE LINE # 1464
0A69 905065            MOV     DPTR,#05065H
0A6C E0                MOVX    A,@DPTR
0A6D FF                MOV     R7,A
0A6E EF                MOV     A,R7
0A6F 54FE              ANL     A,#0FEH
0A71 FF                MOV     R7,A
0A72 EF                MOV     A,R7
0A73 F0                MOVX    @DPTR,A
                                           ; SOURCE LINE # 1465
0A74 905034            MOV     DPTR,#05034H
0A77 E0                MOVX    A,@DPTR
0A78 FF                MOV     R7,A
0A79 EF                MOV     A,R7
0A7A 54FE              ANL     A,#0FEH
0A7C FF                MOV     R7,A
0A7D EF                MOV     A,R7
0A7E F0                MOVX    @DPTR,A
                                           ; SOURCE LINE # 1467
0A7F 7BFF              MOV     R3,#0FFH
0A81 7A00        R     MOV     R2,#HIGH ?SC_82
0A83 7900        R     MOV     R1,#LOW ?SC_82
0A85 120000      E     LCALL   _UART_PutString
0A88         ?C0332:
                                           ; SOURCE LINE # 1468
0A88 120000      E     LCALL   UART_ReadTxStatus
0A8B EF                MOV     A,R7
0A8C 30E103            JNB     ACC.1,$ + 6H
0A8F 020000      R     LJMP    ?C0412
0A92 80F4              SJMP    ?C0332
0A94         ?C0333:
                                           ; SOURCE LINE # 1469
                                           ; SOURCE LINE # 1470
0A94 22                RET     
                                           ; SOURCE LINE # 1471
0A95         ?C0334:
                                           ; SOURCE LINE # 1472
                                           ; SOURCE LINE # 1473
0A95 905016            MOV     DPTR,#05016H
0A98 E0                MOVX    A,@DPTR
0A99 FF                MOV     R7,A
0A9A EF                MOV     A,R7
0A9B 54FE              ANL     A,#0FEH
0A9D FF                MOV     R7,A
0A9E EF                MOV     A,R7
0A9F F0                MOVX    @DPTR,A
                                           ; SOURCE LINE # 1474
0AA0 905017            MOV     DPTR,#05017H
0AA3 E0                MOVX    A,@DPTR
0AA4 FF                MOV     R7,A
0AA5 EF                MOV     A,R7
0AA6 54FE              ANL     A,#0FEH
0AA8 FF                MOV     R7,A
0AA9 EF                MOV     A,R7
0AAA F0                MOVX    @DPTR,A
                                           ; SOURCE LINE # 1475
0AAB 905064            MOV     DPTR,#05064H
0AAE E0                MOVX    A,@DPTR
0AAF FF                MOV     R7,A
0AB0 EF                MOV     A,R7
0AB1 4401              ORL     A,#01H
C51 COMPILER V9.51   TASK1                                                                 07/01/2014 18:20:50 PAGE 118 

0AB3 FF                MOV     R7,A
0AB4 EF                MOV     A,R7
0AB5 F0                MOVX    @DPTR,A
                                           ; SOURCE LINE # 1476
0AB6 905065            MOV     DPTR,#05065H
0AB9 E0                MOVX    A,@DPTR
0ABA FF                MOV     R7,A
0ABB EF                MOV     A,R7
0ABC 54FE              ANL     A,#0FEH
0ABE FF                MOV     R7,A
0ABF EF                MOV     A,R7
0AC0 F0                MOVX    @DPTR,A
                                           ; SOURCE LINE # 1477
0AC1 905034            MOV     DPTR,#05034H
0AC4 E0                MOVX    A,@DPTR
0AC5 FF                MOV     R7,A
0AC6 EF                MOV     A,R7
0AC7 54FE              ANL     A,#0FEH
0AC9 FF                MOV     R7,A
0ACA EF                MOV     A,R7
0ACB F0                MOVX    @DPTR,A
                                           ; SOURCE LINE # 1479
0ACC 7BFF              MOV     R3,#0FFH
0ACE 7A00        R     MOV     R2,#HIGH ?SC_88
0AD0 7900        R     MOV     R1,#LOW ?SC_88
0AD2 120000      E     LCALL   _UART_PutString
0AD5         ?C0335:
                                           ; SOURCE LINE # 1480
0AD5 120000      E     LCALL   UART_ReadTxStatus
0AD8 EF                MOV     A,R7
0AD9 30E103            JNB     ACC.1,$ + 6H
0ADC 020000      R     LJMP    ?C0412
0ADF 80F4              SJMP    ?C0335
0AE1         ?C0336:
                                           ; SOURCE LINE # 1481
                                           ; SOURCE LINE # 1482
0AE1 22                RET     
                                           ; SOURCE LINE # 1483
0AE2         ?C0337:
                                           ; SOURCE LINE # 1484
                                           ; SOURCE LINE # 1485
0AE2 905016            MOV     DPTR,#05016H
0AE5 E0                MOVX    A,@DPTR
0AE6 FF                MOV     R7,A
0AE7 EF                MOV     A,R7
0AE8 4401              ORL     A,#01H
0AEA FF                MOV     R7,A
0AEB EF                MOV     A,R7
0AEC F0                MOVX    @DPTR,A
                                           ; SOURCE LINE # 1486
0AED 905017            MOV     DPTR,#05017H
0AF0 E0                MOVX    A,@DPTR
0AF1 FF                MOV     R7,A
0AF2 EF                MOV     A,R7
0AF3 54FE              ANL     A,#0FEH
0AF5 FF                MOV     R7,A
0AF6 EF                MOV     A,R7
0AF7 F0                MOVX    @DPTR,A
                                           ; SOURCE LINE # 1487
0AF8 905064            MOV     DPTR,#05064H
0AFB E0                MOVX    A,@DPTR
0AFC FF                MOV     R7,A
C51 COMPILER V9.51   TASK1                                                                 07/01/2014 18:20:50 PAGE 119 

0AFD EF                MOV     A,R7
0AFE 4401              ORL     A,#01H
0B00 FF                MOV     R7,A
0B01 EF                MOV     A,R7
0B02 F0                MOVX    @DPTR,A
                                           ; SOURCE LINE # 1488
0B03 905065            MOV     DPTR,#05065H
0B06 E0                MOVX    A,@DPTR
0B07 FF                MOV     R7,A
0B08 EF                MOV     A,R7
0B09 54FE              ANL     A,#0FEH
0B0B FF                MOV     R7,A
0B0C EF                MOV     A,R7
0B0D F0                MOVX    @DPTR,A
                                           ; SOURCE LINE # 1489
0B0E 905034            MOV     DPTR,#05034H
0B11 E0                MOVX    A,@DPTR
0B12 FF                MOV     R7,A
0B13 EF                MOV     A,R7
0B14 54FE              ANL     A,#0FEH
0B16 FF                MOV     R7,A
0B17 EF                MOV     A,R7
0B18 F0                MOVX    @DPTR,A
                                           ; SOURCE LINE # 1491
0B19 7BFF              MOV     R3,#0FFH
0B1B 7A00        R     MOV     R2,#HIGH ?SC_94
0B1D 7900        R     MOV     R1,#LOW ?SC_94
0B1F 120000      E     LCALL   _UART_PutString
0B22         ?C0338:
                                           ; SOURCE LINE # 1492
0B22 120000      E     LCALL   UART_ReadTxStatus
0B25 EF                MOV     A,R7
0B26 30E103            JNB     ACC.1,$ + 6H
0B29 020000      R     LJMP    ?C0412
0B2C 80F4              SJMP    ?C0338
0B2E         ?C0339:
                                           ; SOURCE LINE # 1493
                                           ; SOURCE LINE # 1494
0B2E 22                RET     
                                           ; SOURCE LINE # 1495
0B2F         ?C0340:
                                           ; SOURCE LINE # 1496
                                           ; SOURCE LINE # 1497
0B2F 905016            MOV     DPTR,#05016H
0B32 E0                MOVX    A,@DPTR
0B33 FF                MOV     R7,A
0B34 EF                MOV     A,R7
0B35 54FE              ANL     A,#0FEH
0B37 FF                MOV     R7,A
0B38 EF                MOV     A,R7
0B39 F0                MOVX    @DPTR,A
                                           ; SOURCE LINE # 1498
0B3A 905017            MOV     DPTR,#05017H
0B3D E0                MOVX    A,@DPTR
0B3E FF                MOV     R7,A
0B3F EF                MOV     A,R7
0B40 4401              ORL     A,#01H
0B42 FF                MOV     R7,A
0B43 EF                MOV     A,R7
0B44 F0                MOVX    @DPTR,A
                                           ; SOURCE LINE # 1499
0B45 905064            MOV     DPTR,#05064H
C51 COMPILER V9.51   TASK1                                                                 07/01/2014 18:20:50 PAGE 120 

0B48 E0                MOVX    A,@DPTR
0B49 FF                MOV     R7,A
0B4A EF                MOV     A,R7
0B4B 4401              ORL     A,#01H
0B4D FF                MOV     R7,A
0B4E EF                MOV     A,R7
0B4F F0                MOVX    @DPTR,A
                                           ; SOURCE LINE # 1500
0B50 905065            MOV     DPTR,#05065H
0B53 E0                MOVX    A,@DPTR
0B54 FF                MOV     R7,A
0B55 EF                MOV     A,R7
0B56 54FE              ANL     A,#0FEH
0B58 FF                MOV     R7,A
0B59 EF                MOV     A,R7
0B5A F0                MOVX    @DPTR,A
                                           ; SOURCE LINE # 1501
0B5B 905034            MOV     DPTR,#05034H
0B5E E0                MOVX    A,@DPTR
0B5F FF                MOV     R7,A
0B60 EF                MOV     A,R7
0B61 54FE              ANL     A,#0FEH
0B63 FF                MOV     R7,A
0B64 EF                MOV     A,R7
0B65 F0                MOVX    @DPTR,A
                                           ; SOURCE LINE # 1503
0B66 7BFF              MOV     R3,#0FFH
0B68 7A00        R     MOV     R2,#HIGH ?SC_100
0B6A 7900        R     MOV     R1,#LOW ?SC_100
0B6C 120000      E     LCALL   _UART_PutString
0B6F         ?C0341:
                                           ; SOURCE LINE # 1504
0B6F 120000      E     LCALL   UART_ReadTxStatus
0B72 EF                MOV     A,R7
0B73 30E103            JNB     ACC.1,$ + 6H
0B76 020000      R     LJMP    ?C0412
0B79 80F4              SJMP    ?C0341
0B7B         ?C0342:
                                           ; SOURCE LINE # 1505
                                           ; SOURCE LINE # 1506
0B7B 22                RET     
                                           ; SOURCE LINE # 1507
0B7C         ?C0343:
                                           ; SOURCE LINE # 1508
                                           ; SOURCE LINE # 1509
0B7C 905016            MOV     DPTR,#05016H
0B7F E0                MOVX    A,@DPTR
0B80 FF                MOV     R7,A
0B81 EF                MOV     A,R7
0B82 4401              ORL     A,#01H
0B84 FF                MOV     R7,A
0B85 EF                MOV     A,R7
0B86 F0                MOVX    @DPTR,A
                                           ; SOURCE LINE # 1510
0B87 905017            MOV     DPTR,#05017H
0B8A E0                MOVX    A,@DPTR
0B8B FF                MOV     R7,A
0B8C EF                MOV     A,R7
0B8D 4401              ORL     A,#01H
0B8F FF                MOV     R7,A
0B90 EF                MOV     A,R7
0B91 F0                MOVX    @DPTR,A
C51 COMPILER V9.51   TASK1                                                                 07/01/2014 18:20:50 PAGE 121 

                                           ; SOURCE LINE # 1511
0B92 905064            MOV     DPTR,#05064H
0B95 E0                MOVX    A,@DPTR
0B96 FF                MOV     R7,A
0B97 EF                MOV     A,R7
0B98 4401              ORL     A,#01H
0B9A FF                MOV     R7,A
0B9B EF                MOV     A,R7
0B9C F0                MOVX    @DPTR,A
                                           ; SOURCE LINE # 1512
0B9D 905065            MOV     DPTR,#05065H
0BA0 E0                MOVX    A,@DPTR
0BA1 FF                MOV     R7,A
0BA2 EF                MOV     A,R7
0BA3 54FE              ANL     A,#0FEH
0BA5 FF                MOV     R7,A
0BA6 EF                MOV     A,R7
0BA7 F0                MOVX    @DPTR,A
                                           ; SOURCE LINE # 1513
0BA8 905034            MOV     DPTR,#05034H
0BAB E0                MOVX    A,@DPTR
0BAC FF                MOV     R7,A
0BAD EF                MOV     A,R7
0BAE 54FE              ANL     A,#0FEH
0BB0 FF                MOV     R7,A
0BB1 EF                MOV     A,R7
0BB2 F0                MOVX    @DPTR,A
                                           ; SOURCE LINE # 1515
0BB3 7BFF              MOV     R3,#0FFH
0BB5 7A00        R     MOV     R2,#HIGH ?SC_106
0BB7 7900        R     MOV     R1,#LOW ?SC_106
0BB9 120000      E     LCALL   _UART_PutString
0BBC         ?C0344:
                                           ; SOURCE LINE # 1516
0BBC 120000      E     LCALL   UART_ReadTxStatus
0BBF EF                MOV     A,R7
0BC0 30E103            JNB     ACC.1,$ + 6H
0BC3 020000      R     LJMP    ?C0412
0BC6 80F4              SJMP    ?C0344
0BC8         ?C0345:
                                           ; SOURCE LINE # 1517
                                           ; SOURCE LINE # 1518
0BC8 22                RET     
                                           ; SOURCE LINE # 1519
0BC9         ?C0346:
                                           ; SOURCE LINE # 1520
                                           ; SOURCE LINE # 1521
0BC9 905016            MOV     DPTR,#05016H
0BCC E0                MOVX    A,@DPTR
0BCD FF                MOV     R7,A
0BCE EF                MOV     A,R7
0BCF 54FE              ANL     A,#0FEH
0BD1 FF                MOV     R7,A
0BD2 EF                MOV     A,R7
0BD3 F0                MOVX    @DPTR,A
                                           ; SOURCE LINE # 1522
0BD4 905017            MOV     DPTR,#05017H
0BD7 E0                MOVX    A,@DPTR
0BD8 FF                MOV     R7,A
0BD9 EF                MOV     A,R7
0BDA 54FE              ANL     A,#0FEH
0BDC FF                MOV     R7,A
C51 COMPILER V9.51   TASK1                                                                 07/01/2014 18:20:50 PAGE 122 

0BDD EF                MOV     A,R7
0BDE F0                MOVX    @DPTR,A
                                           ; SOURCE LINE # 1523
0BDF 905064            MOV     DPTR,#05064H
0BE2 E0                MOVX    A,@DPTR
0BE3 FF                MOV     R7,A
0BE4 EF                MOV     A,R7
0BE5 54FE              ANL     A,#0FEH
0BE7 FF                MOV     R7,A
0BE8 EF                MOV     A,R7
0BE9 F0                MOVX    @DPTR,A
                                           ; SOURCE LINE # 1524
0BEA 905065            MOV     DPTR,#05065H
0BED E0                MOVX    A,@DPTR
0BEE FF                MOV     R7,A
0BEF EF                MOV     A,R7
0BF0 4401              ORL     A,#01H
0BF2 FF                MOV     R7,A
0BF3 EF                MOV     A,R7
0BF4 F0                MOVX    @DPTR,A
                                           ; SOURCE LINE # 1525
0BF5 905034            MOV     DPTR,#05034H
0BF8 E0                MOVX    A,@DPTR
0BF9 FF                MOV     R7,A
0BFA EF                MOV     A,R7
0BFB 54FE              ANL     A,#0FEH
0BFD FF                MOV     R7,A
0BFE EF                MOV     A,R7
0BFF F0                MOVX    @DPTR,A
                                           ; SOURCE LINE # 1527
0C00 7BFF              MOV     R3,#0FFH
0C02 7A00        R     MOV     R2,#HIGH ?SC_112
0C04 7900        R     MOV     R1,#LOW ?SC_112
0C06 120000      E     LCALL   _UART_PutString
0C09         ?C0347:
                                           ; SOURCE LINE # 1528
0C09 120000      E     LCALL   UART_ReadTxStatus
0C0C EF                MOV     A,R7
0C0D 30E103            JNB     ACC.1,$ + 6H
0C10 020000      R     LJMP    ?C0412
0C13 80F4              SJMP    ?C0347
0C15         ?C0348:
                                           ; SOURCE LINE # 1529
                                           ; SOURCE LINE # 1530
0C15 22                RET     
                                           ; SOURCE LINE # 1531
0C16         ?C0349:
                                           ; SOURCE LINE # 1532
                                           ; SOURCE LINE # 1533
0C16 905016            MOV     DPTR,#05016H
0C19 E0                MOVX    A,@DPTR
0C1A FF                MOV     R7,A
0C1B EF                MOV     A,R7
0C1C 4401              ORL     A,#01H
0C1E FF                MOV     R7,A
0C1F EF                MOV     A,R7
0C20 F0                MOVX    @DPTR,A
                                           ; SOURCE LINE # 1534
0C21 905017            MOV     DPTR,#05017H
0C24 E0                MOVX    A,@DPTR
0C25 FF                MOV     R7,A
0C26 EF                MOV     A,R7
C51 COMPILER V9.51   TASK1                                                                 07/01/2014 18:20:50 PAGE 123 

0C27 54FE              ANL     A,#0FEH
0C29 FF                MOV     R7,A
0C2A EF                MOV     A,R7
0C2B F0                MOVX    @DPTR,A
                                           ; SOURCE LINE # 1535
0C2C 905064            MOV     DPTR,#05064H
0C2F E0                MOVX    A,@DPTR
0C30 FF                MOV     R7,A
0C31 EF                MOV     A,R7
0C32 54FE              ANL     A,#0FEH
0C34 FF                MOV     R7,A
0C35 EF                MOV     A,R7
0C36 F0                MOVX    @DPTR,A
                                           ; SOURCE LINE # 1536
0C37 905065            MOV     DPTR,#05065H
0C3A E0                MOVX    A,@DPTR
0C3B FF                MOV     R7,A
0C3C EF                MOV     A,R7
0C3D 4401              ORL     A,#01H
0C3F FF                MOV     R7,A
0C40 EF                MOV     A,R7
0C41 F0                MOVX    @DPTR,A
                                           ; SOURCE LINE # 1537
0C42 905034            MOV     DPTR,#05034H
0C45 E0                MOVX    A,@DPTR
0C46 FF                MOV     R7,A
0C47 EF                MOV     A,R7
0C48 54FE              ANL     A,#0FEH
0C4A FF                MOV     R7,A
0C4B EF                MOV     A,R7
0C4C F0                MOVX    @DPTR,A
                                           ; SOURCE LINE # 1539
0C4D 7BFF              MOV     R3,#0FFH
0C4F 7A00        R     MOV     R2,#HIGH ?SC_118
0C51 7900        R     MOV     R1,#LOW ?SC_118
0C53 120000      E     LCALL   _UART_PutString
0C56         ?C0350:
                                           ; SOURCE LINE # 1540
0C56 120000      E     LCALL   UART_ReadTxStatus
0C59 EF                MOV     A,R7
0C5A 30E103            JNB     ACC.1,$ + 6H
0C5D 020000      R     LJMP    ?C0412
0C60 80F4              SJMP    ?C0350
0C62         ?C0351:
                                           ; SOURCE LINE # 1541
                                           ; SOURCE LINE # 1542
0C62 22                RET     
                                           ; SOURCE LINE # 1543
0C63         ?C0352:
                                           ; SOURCE LINE # 1544
                                           ; SOURCE LINE # 1545
0C63 905016            MOV     DPTR,#05016H
0C66 E0                MOVX    A,@DPTR
0C67 FF                MOV     R7,A
0C68 EF                MOV     A,R7
0C69 54FE              ANL     A,#0FEH
0C6B FF                MOV     R7,A
0C6C EF                MOV     A,R7
0C6D F0                MOVX    @DPTR,A
                                           ; SOURCE LINE # 1546
0C6E 905017            MOV     DPTR,#05017H
0C71 E0                MOVX    A,@DPTR
C51 COMPILER V9.51   TASK1                                                                 07/01/2014 18:20:50 PAGE 124 

0C72 FF                MOV     R7,A
0C73 EF                MOV     A,R7
0C74 4401              ORL     A,#01H
0C76 FF                MOV     R7,A
0C77 EF                MOV     A,R7
0C78 F0                MOVX    @DPTR,A
                                           ; SOURCE LINE # 1547
0C79 905064            MOV     DPTR,#05064H
0C7C E0                MOVX    A,@DPTR
0C7D FF                MOV     R7,A
0C7E EF                MOV     A,R7
0C7F 54FE              ANL     A,#0FEH
0C81 FF                MOV     R7,A
0C82 EF                MOV     A,R7
0C83 F0                MOVX    @DPTR,A
                                           ; SOURCE LINE # 1548
0C84 905065            MOV     DPTR,#05065H
0C87 E0                MOVX    A,@DPTR
0C88 FF                MOV     R7,A
0C89 EF                MOV     A,R7
0C8A 4401              ORL     A,#01H
0C8C FF                MOV     R7,A
0C8D EF                MOV     A,R7
0C8E F0                MOVX    @DPTR,A
                                           ; SOURCE LINE # 1549
0C8F 905034            MOV     DPTR,#05034H
0C92 E0                MOVX    A,@DPTR
0C93 FF                MOV     R7,A
0C94 EF                MOV     A,R7
0C95 54FE              ANL     A,#0FEH
0C97 FF                MOV     R7,A
0C98 EF                MOV     A,R7
0C99 F0                MOVX    @DPTR,A
                                           ; SOURCE LINE # 1551
0C9A 7BFF              MOV     R3,#0FFH
0C9C 7A00        R     MOV     R2,#HIGH ?SC_124
0C9E 7900        R     MOV     R1,#LOW ?SC_124
0CA0 120000      E     LCALL   _UART_PutString
0CA3         ?C0353:
                                           ; SOURCE LINE # 1552
0CA3 120000      E     LCALL   UART_ReadTxStatus
0CA6 EF                MOV     A,R7
0CA7 30E103            JNB     ACC.1,$ + 6H
0CAA 020000      R     LJMP    ?C0412
0CAD 80F4              SJMP    ?C0353
0CAF         ?C0354:
                                           ; SOURCE LINE # 1553
                                           ; SOURCE LINE # 1554
0CAF 22                RET     
                                           ; SOURCE LINE # 1555
0CB0         ?C0355:
                                           ; SOURCE LINE # 1556
                                           ; SOURCE LINE # 1557
0CB0 905016            MOV     DPTR,#05016H
0CB3 E0                MOVX    A,@DPTR
0CB4 FF                MOV     R7,A
0CB5 EF                MOV     A,R7
0CB6 4401              ORL     A,#01H
0CB8 FF                MOV     R7,A
0CB9 EF                MOV     A,R7
0CBA F0                MOVX    @DPTR,A
                                           ; SOURCE LINE # 1558
C51 COMPILER V9.51   TASK1                                                                 07/01/2014 18:20:50 PAGE 125 

0CBB 905017            MOV     DPTR,#05017H
0CBE E0                MOVX    A,@DPTR
0CBF FF                MOV     R7,A
0CC0 EF                MOV     A,R7
0CC1 4401              ORL     A,#01H
0CC3 FF                MOV     R7,A
0CC4 EF                MOV     A,R7
0CC5 F0                MOVX    @DPTR,A
                                           ; SOURCE LINE # 1559
0CC6 905064            MOV     DPTR,#05064H
0CC9 E0                MOVX    A,@DPTR
0CCA FF                MOV     R7,A
0CCB EF                MOV     A,R7
0CCC 54FE              ANL     A,#0FEH
0CCE FF                MOV     R7,A
0CCF EF                MOV     A,R7
0CD0 F0                MOVX    @DPTR,A
                                           ; SOURCE LINE # 1560
0CD1 905065            MOV     DPTR,#05065H
0CD4 E0                MOVX    A,@DPTR
0CD5 FF                MOV     R7,A
0CD6 EF                MOV     A,R7
0CD7 4401              ORL     A,#01H
0CD9 FF                MOV     R7,A
0CDA EF                MOV     A,R7
0CDB F0                MOVX    @DPTR,A
                                           ; SOURCE LINE # 1561
0CDC 905034            MOV     DPTR,#05034H
0CDF E0                MOVX    A,@DPTR
0CE0 FF                MOV     R7,A
0CE1 EF                MOV     A,R7
0CE2 54FE              ANL     A,#0FEH
0CE4 FF                MOV     R7,A
0CE5 EF                MOV     A,R7
0CE6 F0                MOVX    @DPTR,A
                                           ; SOURCE LINE # 1563
0CE7 7BFF              MOV     R3,#0FFH
0CE9 7A00        R     MOV     R2,#HIGH ?SC_130
0CEB 7900        R     MOV     R1,#LOW ?SC_130
0CED 120000      E     LCALL   _UART_PutString
0CF0         ?C0356:
                                           ; SOURCE LINE # 1564
0CF0 120000      E     LCALL   UART_ReadTxStatus
0CF3 EF                MOV     A,R7
0CF4 30E103            JNB     ACC.1,$ + 6H
0CF7 020000      R     LJMP    ?C0412
0CFA 80F4              SJMP    ?C0356
0CFC         ?C0357:
                                           ; SOURCE LINE # 1565
                                           ; SOURCE LINE # 1566
0CFC 22                RET     
                                           ; SOURCE LINE # 1567
0CFD         ?C0358:
                                           ; SOURCE LINE # 1568
                                           ; SOURCE LINE # 1569
0CFD 905016            MOV     DPTR,#05016H
0D00 E0                MOVX    A,@DPTR
0D01 FF                MOV     R7,A
0D02 EF                MOV     A,R7
0D03 54FE              ANL     A,#0FEH
0D05 FF                MOV     R7,A
0D06 EF                MOV     A,R7
C51 COMPILER V9.51   TASK1                                                                 07/01/2014 18:20:50 PAGE 126 

0D07 F0                MOVX    @DPTR,A
                                           ; SOURCE LINE # 1570
0D08 905017            MOV     DPTR,#05017H
0D0B E0                MOVX    A,@DPTR
0D0C FF                MOV     R7,A
0D0D EF                MOV     A,R7
0D0E 54FE              ANL     A,#0FEH
0D10 FF                MOV     R7,A
0D11 EF                MOV     A,R7
0D12 F0                MOVX    @DPTR,A
                                           ; SOURCE LINE # 1571
0D13 905064            MOV     DPTR,#05064H
0D16 E0                MOVX    A,@DPTR
0D17 FF                MOV     R7,A
0D18 EF                MOV     A,R7
0D19 4401              ORL     A,#01H
0D1B FF                MOV     R7,A
0D1C EF                MOV     A,R7
0D1D F0                MOVX    @DPTR,A
                                           ; SOURCE LINE # 1572
0D1E 905065            MOV     DPTR,#05065H
0D21 E0                MOVX    A,@DPTR
0D22 FF                MOV     R7,A
0D23 EF                MOV     A,R7
0D24 4401              ORL     A,#01H
0D26 FF                MOV     R7,A
0D27 EF                MOV     A,R7
0D28 F0                MOVX    @DPTR,A
                                           ; SOURCE LINE # 1573
0D29 905034            MOV     DPTR,#05034H
0D2C E0                MOVX    A,@DPTR
0D2D FF                MOV     R7,A
0D2E EF                MOV     A,R7
0D2F 54FE              ANL     A,#0FEH
0D31 FF                MOV     R7,A
0D32 EF                MOV     A,R7
0D33 F0                MOVX    @DPTR,A
                                           ; SOURCE LINE # 1575
0D34 7BFF              MOV     R3,#0FFH
0D36 7A00        R     MOV     R2,#HIGH ?SC_136
0D38 7900        R     MOV     R1,#LOW ?SC_136
0D3A 120000      E     LCALL   _UART_PutString
0D3D         ?C0359:
                                           ; SOURCE LINE # 1576
0D3D 120000      E     LCALL   UART_ReadTxStatus
0D40 EF                MOV     A,R7
0D41 30E103            JNB     ACC.1,$ + 6H
0D44 020000      R     LJMP    ?C0412
0D47 80F4              SJMP    ?C0359
0D49         ?C0360:
                                           ; SOURCE LINE # 1577
                                           ; SOURCE LINE # 1578
0D49 22                RET     
                                           ; SOURCE LINE # 1579
0D4A         ?C0361:
                                           ; SOURCE LINE # 1580
                                           ; SOURCE LINE # 1581
0D4A 905016            MOV     DPTR,#05016H
0D4D E0                MOVX    A,@DPTR
0D4E FF                MOV     R7,A
0D4F EF                MOV     A,R7
0D50 4401              ORL     A,#01H
C51 COMPILER V9.51   TASK1                                                                 07/01/2014 18:20:50 PAGE 127 

0D52 FF                MOV     R7,A
0D53 EF                MOV     A,R7
0D54 F0                MOVX    @DPTR,A
                                           ; SOURCE LINE # 1582
0D55 905017            MOV     DPTR,#05017H
0D58 E0                MOVX    A,@DPTR
0D59 FF                MOV     R7,A
0D5A EF                MOV     A,R7
0D5B 54FE              ANL     A,#0FEH
0D5D FF                MOV     R7,A
0D5E EF                MOV     A,R7
0D5F F0                MOVX    @DPTR,A
                                           ; SOURCE LINE # 1583
0D60 905064            MOV     DPTR,#05064H
0D63 E0                MOVX    A,@DPTR
0D64 FF                MOV     R7,A
0D65 EF                MOV     A,R7
0D66 4401              ORL     A,#01H
0D68 FF                MOV     R7,A
0D69 EF                MOV     A,R7
0D6A F0                MOVX    @DPTR,A
                                           ; SOURCE LINE # 1584
0D6B 905065            MOV     DPTR,#05065H
0D6E E0                MOVX    A,@DPTR
0D6F FF                MOV     R7,A
0D70 EF                MOV     A,R7
0D71 4401              ORL     A,#01H
0D73 FF                MOV     R7,A
0D74 EF                MOV     A,R7
0D75 F0                MOVX    @DPTR,A
                                           ; SOURCE LINE # 1585
0D76 905034            MOV     DPTR,#05034H
0D79 E0                MOVX    A,@DPTR
0D7A FF                MOV     R7,A
0D7B EF                MOV     A,R7
0D7C 54FE              ANL     A,#0FEH
0D7E FF                MOV     R7,A
0D7F EF                MOV     A,R7
0D80 F0                MOVX    @DPTR,A
                                           ; SOURCE LINE # 1587
0D81 7BFF              MOV     R3,#0FFH
0D83 7A00        R     MOV     R2,#HIGH ?SC_142
0D85 7900        R     MOV     R1,#LOW ?SC_142
0D87 120000      E     LCALL   _UART_PutString
0D8A         ?C0362:
                                           ; SOURCE LINE # 1588
0D8A 120000      E     LCALL   UART_ReadTxStatus
0D8D EF                MOV     A,R7
0D8E 30E103            JNB     ACC.1,$ + 6H
0D91 020000      R     LJMP    ?C0412
0D94 80F4              SJMP    ?C0362
0D96         ?C0363:
                                           ; SOURCE LINE # 1589
                                           ; SOURCE LINE # 1590
0D96 22                RET     
                                           ; SOURCE LINE # 1591
0D97         ?C0364:
                                           ; SOURCE LINE # 1592
                                           ; SOURCE LINE # 1593
0D97 905016            MOV     DPTR,#05016H
0D9A E0                MOVX    A,@DPTR
0D9B FF                MOV     R7,A
C51 COMPILER V9.51   TASK1                                                                 07/01/2014 18:20:50 PAGE 128 

0D9C EF                MOV     A,R7
0D9D 54FE              ANL     A,#0FEH
0D9F FF                MOV     R7,A
0DA0 EF                MOV     A,R7
0DA1 F0                MOVX    @DPTR,A
                                           ; SOURCE LINE # 1594
0DA2 905017            MOV     DPTR,#05017H
0DA5 E0                MOVX    A,@DPTR
0DA6 FF                MOV     R7,A
0DA7 EF                MOV     A,R7
0DA8 4401              ORL     A,#01H
0DAA FF                MOV     R7,A
0DAB EF                MOV     A,R7
0DAC F0                MOVX    @DPTR,A
                                           ; SOURCE LINE # 1595
0DAD 905064            MOV     DPTR,#05064H
0DB0 E0                MOVX    A,@DPTR
0DB1 FF                MOV     R7,A
0DB2 EF                MOV     A,R7
0DB3 4401              ORL     A,#01H
0DB5 FF                MOV     R7,A
0DB6 EF                MOV     A,R7
0DB7 F0                MOVX    @DPTR,A
                                           ; SOURCE LINE # 1596
0DB8 905065            MOV     DPTR,#05065H
0DBB E0                MOVX    A,@DPTR
0DBC FF                MOV     R7,A
0DBD EF                MOV     A,R7
0DBE 4401              ORL     A,#01H
0DC0 FF                MOV     R7,A
0DC1 EF                MOV     A,R7
0DC2 F0                MOVX    @DPTR,A
                                           ; SOURCE LINE # 1597
0DC3 905034            MOV     DPTR,#05034H
0DC6 E0                MOVX    A,@DPTR
0DC7 FF                MOV     R7,A
0DC8 EF                MOV     A,R7
0DC9 54FE              ANL     A,#0FEH
0DCB FF                MOV     R7,A
0DCC EF                MOV     A,R7
0DCD F0                MOVX    @DPTR,A
                                           ; SOURCE LINE # 1599
0DCE 7BFF              MOV     R3,#0FFH
0DD0 7A00        R     MOV     R2,#HIGH ?SC_148
0DD2 7900        R     MOV     R1,#LOW ?SC_148
0DD4 120000      E     LCALL   _UART_PutString
0DD7         ?C0365:
                                           ; SOURCE LINE # 1600
0DD7 120000      E     LCALL   UART_ReadTxStatus
0DDA EF                MOV     A,R7
0DDB 30E103            JNB     ACC.1,$ + 6H
0DDE 020000      R     LJMP    ?C0412
0DE1 80F4              SJMP    ?C0365
0DE3         ?C0366:
                                           ; SOURCE LINE # 1601
                                           ; SOURCE LINE # 1602
0DE3 22                RET     
                                           ; SOURCE LINE # 1603
0DE4         ?C0367:
                                           ; SOURCE LINE # 1604
                                           ; SOURCE LINE # 1605
0DE4 905016            MOV     DPTR,#05016H
C51 COMPILER V9.51   TASK1                                                                 07/01/2014 18:20:50 PAGE 129 

0DE7 E0                MOVX    A,@DPTR
0DE8 FF                MOV     R7,A
0DE9 EF                MOV     A,R7
0DEA 4401              ORL     A,#01H
0DEC FF                MOV     R7,A
0DED EF                MOV     A,R7
0DEE F0                MOVX    @DPTR,A
                                           ; SOURCE LINE # 1606
0DEF 905017            MOV     DPTR,#05017H
0DF2 E0                MOVX    A,@DPTR
0DF3 FF                MOV     R7,A
0DF4 EF                MOV     A,R7
0DF5 4401              ORL     A,#01H
0DF7 FF                MOV     R7,A
0DF8 EF                MOV     A,R7
0DF9 F0                MOVX    @DPTR,A
                                           ; SOURCE LINE # 1607
0DFA 905064            MOV     DPTR,#05064H
0DFD E0                MOVX    A,@DPTR
0DFE FF                MOV     R7,A
0DFF EF                MOV     A,R7
0E00 4401              ORL     A,#01H
0E02 FF                MOV     R7,A
0E03 EF                MOV     A,R7
0E04 F0                MOVX    @DPTR,A
                                           ; SOURCE LINE # 1608
0E05 905065            MOV     DPTR,#05065H
0E08 E0                MOVX    A,@DPTR
0E09 FF                MOV     R7,A
0E0A EF                MOV     A,R7
0E0B 4401              ORL     A,#01H
0E0D FF                MOV     R7,A
0E0E EF                MOV     A,R7
0E0F F0                MOVX    @DPTR,A
                                           ; SOURCE LINE # 1609
0E10 905034            MOV     DPTR,#05034H
0E13 E0                MOVX    A,@DPTR
0E14 FF                MOV     R7,A
0E15 EF                MOV     A,R7
0E16 54FE              ANL     A,#0FEH
0E18 FF                MOV     R7,A
0E19 EF                MOV     A,R7
0E1A F0                MOVX    @DPTR,A
                                           ; SOURCE LINE # 1611
0E1B 7BFF              MOV     R3,#0FFH
0E1D 7A00        R     MOV     R2,#HIGH ?SC_154
0E1F 7900        R     MOV     R1,#LOW ?SC_154
0E21 120000      E     LCALL   _UART_PutString
0E24         ?C0368:
                                           ; SOURCE LINE # 1612
0E24 120000      E     LCALL   UART_ReadTxStatus
0E27 EF                MOV     A,R7
0E28 30E103            JNB     ACC.1,$ + 6H
0E2B 020000      R     LJMP    ?C0412
0E2E 80F4              SJMP    ?C0368
0E30         ?C0369:
                                           ; SOURCE LINE # 1613
                                           ; SOURCE LINE # 1614
0E30 22                RET     
                                           ; SOURCE LINE # 1615
0E31         ?C0370:
                                           ; SOURCE LINE # 1616
C51 COMPILER V9.51   TASK1                                                                 07/01/2014 18:20:50 PAGE 130 

                                           ; SOURCE LINE # 1617
0E31 905016            MOV     DPTR,#05016H
0E34 E0                MOVX    A,@DPTR
0E35 FF                MOV     R7,A
0E36 EF                MOV     A,R7
0E37 54FE              ANL     A,#0FEH
0E39 FF                MOV     R7,A
0E3A EF                MOV     A,R7
0E3B F0                MOVX    @DPTR,A
                                           ; SOURCE LINE # 1618
0E3C 905017            MOV     DPTR,#05017H
0E3F E0                MOVX    A,@DPTR
0E40 FF                MOV     R7,A
0E41 EF                MOV     A,R7
0E42 54FE              ANL     A,#0FEH
0E44 FF                MOV     R7,A
0E45 EF                MOV     A,R7
0E46 F0                MOVX    @DPTR,A
                                           ; SOURCE LINE # 1619
0E47 905064            MOV     DPTR,#05064H
0E4A E0                MOVX    A,@DPTR
0E4B FF                MOV     R7,A
0E4C EF                MOV     A,R7
0E4D 54FE              ANL     A,#0FEH
0E4F FF                MOV     R7,A
0E50 EF                MOV     A,R7
0E51 F0                MOVX    @DPTR,A
                                           ; SOURCE LINE # 1620
0E52 905065            MOV     DPTR,#05065H
0E55 E0                MOVX    A,@DPTR
0E56 FF                MOV     R7,A
0E57 EF                MOV     A,R7
0E58 54FE              ANL     A,#0FEH
0E5A FF                MOV     R7,A
0E5B EF                MOV     A,R7
0E5C F0                MOVX    @DPTR,A
                                           ; SOURCE LINE # 1621
0E5D 905034            MOV     DPTR,#05034H
0E60 E0                MOVX    A,@DPTR
0E61 FF                MOV     R7,A
0E62 EF                MOV     A,R7
0E63 4401              ORL     A,#01H
0E65 FF                MOV     R7,A
0E66 EF                MOV     A,R7
0E67 F0                MOVX    @DPTR,A
                                           ; SOURCE LINE # 1623
0E68 7BFF              MOV     R3,#0FFH
0E6A 7A00        R     MOV     R2,#HIGH ?SC_160
0E6C 7900        R     MOV     R1,#LOW ?SC_160
0E6E 120000      E     LCALL   _UART_PutString
0E71         ?C0371:
                                           ; SOURCE LINE # 1624
0E71 120000      E     LCALL   UART_ReadTxStatus
0E74 EF                MOV     A,R7
0E75 30E103            JNB     ACC.1,$ + 6H
0E78 020000      R     LJMP    ?C0412
0E7B 80F4              SJMP    ?C0371
0E7D         ?C0372:
                                           ; SOURCE LINE # 1625
                                           ; SOURCE LINE # 1626
0E7D 22                RET     
                                           ; SOURCE LINE # 1627
C51 COMPILER V9.51   TASK1                                                                 07/01/2014 18:20:50 PAGE 131 

0E7E         ?C0373:
                                           ; SOURCE LINE # 1628
                                           ; SOURCE LINE # 1629
0E7E 905016            MOV     DPTR,#05016H
0E81 E0                MOVX    A,@DPTR
0E82 FF                MOV     R7,A
0E83 EF                MOV     A,R7
0E84 4401              ORL     A,#01H
0E86 FF                MOV     R7,A
0E87 EF                MOV     A,R7
0E88 F0                MOVX    @DPTR,A
                                           ; SOURCE LINE # 1630
0E89 905017            MOV     DPTR,#05017H
0E8C E0                MOVX    A,@DPTR
0E8D FF                MOV     R7,A
0E8E EF                MOV     A,R7
0E8F 54FE              ANL     A,#0FEH
0E91 FF                MOV     R7,A
0E92 EF                MOV     A,R7
0E93 F0                MOVX    @DPTR,A
                                           ; SOURCE LINE # 1631
0E94 905064            MOV     DPTR,#05064H
0E97 E0                MOVX    A,@DPTR
0E98 FF                MOV     R7,A
0E99 EF                MOV     A,R7
0E9A 54FE              ANL     A,#0FEH
0E9C FF                MOV     R7,A
0E9D EF                MOV     A,R7
0E9E F0                MOVX    @DPTR,A
                                           ; SOURCE LINE # 1632
0E9F 905065            MOV     DPTR,#05065H
0EA2 E0                MOVX    A,@DPTR
0EA3 FF                MOV     R7,A
0EA4 EF                MOV     A,R7
0EA5 54FE              ANL     A,#0FEH
0EA7 FF                MOV     R7,A
0EA8 EF                MOV     A,R7
0EA9 F0                MOVX    @DPTR,A
                                           ; SOURCE LINE # 1633
0EAA 905034            MOV     DPTR,#05034H
0EAD E0                MOVX    A,@DPTR
0EAE FF                MOV     R7,A
0EAF EF                MOV     A,R7
0EB0 4401              ORL     A,#01H
0EB2 FF                MOV     R7,A
0EB3 EF                MOV     A,R7
0EB4 F0                MOVX    @DPTR,A
                                           ; SOURCE LINE # 1636
0EB5 7BFF              MOV     R3,#0FFH
0EB7 7A00        R     MOV     R2,#HIGH ?SC_166
0EB9 7900        R     MOV     R1,#LOW ?SC_166
0EBB 120000      E     LCALL   _UART_PutString
0EBE         ?C0374:
                                           ; SOURCE LINE # 1637
0EBE 120000      E     LCALL   UART_ReadTxStatus
0EC1 EF                MOV     A,R7
0EC2 30E103            JNB     ACC.1,$ + 6H
0EC5 020000      R     LJMP    ?C0412
0EC8 80F4              SJMP    ?C0374
0ECA         ?C0375:
                                           ; SOURCE LINE # 1638
                                           ; SOURCE LINE # 1639
C51 COMPILER V9.51   TASK1                                                                 07/01/2014 18:20:50 PAGE 132 

0ECA 22                RET     
                                           ; SOURCE LINE # 1640
0ECB         ?C0376:
                                           ; SOURCE LINE # 1641
                                           ; SOURCE LINE # 1642
0ECB 905016            MOV     DPTR,#05016H
0ECE E0                MOVX    A,@DPTR
0ECF FF                MOV     R7,A
0ED0 EF                MOV     A,R7
0ED1 54FE              ANL     A,#0FEH
0ED3 FF                MOV     R7,A
0ED4 EF                MOV     A,R7
0ED5 F0                MOVX    @DPTR,A
                                           ; SOURCE LINE # 1643
0ED6 905017            MOV     DPTR,#05017H
0ED9 E0                MOVX    A,@DPTR
0EDA FF                MOV     R7,A
0EDB EF                MOV     A,R7
0EDC 4401              ORL     A,#01H
0EDE FF                MOV     R7,A
0EDF EF                MOV     A,R7
0EE0 F0                MOVX    @DPTR,A
                                           ; SOURCE LINE # 1644
0EE1 905064            MOV     DPTR,#05064H
0EE4 E0                MOVX    A,@DPTR
0EE5 FF                MOV     R7,A
0EE6 EF                MOV     A,R7
0EE7 54FE              ANL     A,#0FEH
0EE9 FF                MOV     R7,A
0EEA EF                MOV     A,R7
0EEB F0                MOVX    @DPTR,A
                                           ; SOURCE LINE # 1645
0EEC 905065            MOV     DPTR,#05065H
0EEF E0                MOVX    A,@DPTR
0EF0 FF                MOV     R7,A
0EF1 EF                MOV     A,R7
0EF2 54FE              ANL     A,#0FEH
0EF4 FF                MOV     R7,A
0EF5 EF                MOV     A,R7
0EF6 F0                MOVX    @DPTR,A
                                           ; SOURCE LINE # 1646
0EF7 905034            MOV     DPTR,#05034H
0EFA E0                MOVX    A,@DPTR
0EFB FF                MOV     R7,A
0EFC EF                MOV     A,R7
0EFD 4401              ORL     A,#01H
0EFF FF                MOV     R7,A
0F00 EF                MOV     A,R7
0F01 F0                MOVX    @DPTR,A
                                           ; SOURCE LINE # 1648
0F02 7BFF              MOV     R3,#0FFH
0F04 7A00        R     MOV     R2,#HIGH ?SC_172
0F06 7900        R     MOV     R1,#LOW ?SC_172
0F08 120000      E     LCALL   _UART_PutString
0F0B         ?C0377:
                                           ; SOURCE LINE # 1649
0F0B 120000      E     LCALL   UART_ReadTxStatus
0F0E EF                MOV     A,R7
0F0F 30E103            JNB     ACC.1,$ + 6H
0F12 020000      R     LJMP    ?C0412
0F15 80F4              SJMP    ?C0377
0F17         ?C0378:
C51 COMPILER V9.51   TASK1                                                                 07/01/2014 18:20:50 PAGE 133 

                                           ; SOURCE LINE # 1650
                                           ; SOURCE LINE # 1651
0F17 22                RET     
                                           ; SOURCE LINE # 1652
0F18         ?C0379:
                                           ; SOURCE LINE # 1653
                                           ; SOURCE LINE # 1654
0F18 905016            MOV     DPTR,#05016H
0F1B E0                MOVX    A,@DPTR
0F1C FF                MOV     R7,A
0F1D EF                MOV     A,R7
0F1E 4401              ORL     A,#01H
0F20 FF                MOV     R7,A
0F21 EF                MOV     A,R7
0F22 F0                MOVX    @DPTR,A
                                           ; SOURCE LINE # 1655
0F23 905017            MOV     DPTR,#05017H
0F26 E0                MOVX    A,@DPTR
0F27 FF                MOV     R7,A
0F28 EF                MOV     A,R7
0F29 4401              ORL     A,#01H
0F2B FF                MOV     R7,A
0F2C EF                MOV     A,R7
0F2D F0                MOVX    @DPTR,A
                                           ; SOURCE LINE # 1656
0F2E 905064            MOV     DPTR,#05064H
0F31 E0                MOVX    A,@DPTR
0F32 FF                MOV     R7,A
0F33 EF                MOV     A,R7
0F34 54FE              ANL     A,#0FEH
0F36 FF                MOV     R7,A
0F37 EF                MOV     A,R7
0F38 F0                MOVX    @DPTR,A
                                           ; SOURCE LINE # 1657
0F39 905065            MOV     DPTR,#05065H
0F3C E0                MOVX    A,@DPTR
0F3D FF                MOV     R7,A
0F3E EF                MOV     A,R7
0F3F 54FE              ANL     A,#0FEH
0F41 FF                MOV     R7,A
0F42 EF                MOV     A,R7
0F43 F0                MOVX    @DPTR,A
                                           ; SOURCE LINE # 1658
0F44 905034            MOV     DPTR,#05034H
0F47 E0                MOVX    A,@DPTR
0F48 FF                MOV     R7,A
0F49 EF                MOV     A,R7
0F4A 4401              ORL     A,#01H
0F4C FF                MOV     R7,A
0F4D EF                MOV     A,R7
0F4E F0                MOVX    @DPTR,A
                                           ; SOURCE LINE # 1660
0F4F 7BFF              MOV     R3,#0FFH
0F51 7A00        R     MOV     R2,#HIGH ?SC_178
0F53 7900        R     MOV     R1,#LOW ?SC_178
0F55 120000      E     LCALL   _UART_PutString
0F58         ?C0380:
                                           ; SOURCE LINE # 1661
0F58 120000      E     LCALL   UART_ReadTxStatus
0F5B EF                MOV     A,R7
0F5C 30E103            JNB     ACC.1,$ + 6H
0F5F 020000      R     LJMP    ?C0412
C51 COMPILER V9.51   TASK1                                                                 07/01/2014 18:20:50 PAGE 134 

0F62 80F4              SJMP    ?C0380
0F64         ?C0381:
                                           ; SOURCE LINE # 1662
                                           ; SOURCE LINE # 1663
0F64 22                RET     
                                           ; SOURCE LINE # 1664
0F65         ?C0382:
                                           ; SOURCE LINE # 1665
                                           ; SOURCE LINE # 1666
0F65 905016            MOV     DPTR,#05016H
0F68 E0                MOVX    A,@DPTR
0F69 FF                MOV     R7,A
0F6A EF                MOV     A,R7
0F6B 54FE              ANL     A,#0FEH
0F6D FF                MOV     R7,A
0F6E EF                MOV     A,R7
0F6F F0                MOVX    @DPTR,A
                                           ; SOURCE LINE # 1667
0F70 905017            MOV     DPTR,#05017H
0F73 E0                MOVX    A,@DPTR
0F74 FF                MOV     R7,A
0F75 EF                MOV     A,R7
0F76 54FE              ANL     A,#0FEH
0F78 FF                MOV     R7,A
0F79 EF                MOV     A,R7
0F7A F0                MOVX    @DPTR,A
                                           ; SOURCE LINE # 1668
0F7B 905064            MOV     DPTR,#05064H
0F7E E0                MOVX    A,@DPTR
0F7F FF                MOV     R7,A
0F80 EF                MOV     A,R7
0F81 4401              ORL     A,#01H
0F83 FF                MOV     R7,A
0F84 EF                MOV     A,R7
0F85 F0                MOVX    @DPTR,A
                                           ; SOURCE LINE # 1669
0F86 905065            MOV     DPTR,#05065H
0F89 E0                MOVX    A,@DPTR
0F8A FF                MOV     R7,A
0F8B EF                MOV     A,R7
0F8C 54FE              ANL     A,#0FEH
0F8E FF                MOV     R7,A
0F8F EF                MOV     A,R7
0F90 F0                MOVX    @DPTR,A
                                           ; SOURCE LINE # 1670
0F91 905034            MOV     DPTR,#05034H
0F94 E0                MOVX    A,@DPTR
0F95 FF                MOV     R7,A
0F96 EF                MOV     A,R7
0F97 4401              ORL     A,#01H
0F99 FF                MOV     R7,A
0F9A EF                MOV     A,R7
0F9B F0                MOVX    @DPTR,A
                                           ; SOURCE LINE # 1672
0F9C 7BFF              MOV     R3,#0FFH
0F9E 7A00        R     MOV     R2,#HIGH ?SC_184
0FA0 7900        R     MOV     R1,#LOW ?SC_184
0FA2 120000      E     LCALL   _UART_PutString
0FA5         ?C0383:
                                           ; SOURCE LINE # 1673
0FA5 120000      E     LCALL   UART_ReadTxStatus
0FA8 EF                MOV     A,R7
C51 COMPILER V9.51   TASK1                                                                 07/01/2014 18:20:50 PAGE 135 

0FA9 30E103            JNB     ACC.1,$ + 6H
0FAC 020000      R     LJMP    ?C0412
0FAF 80F4              SJMP    ?C0383
0FB1         ?C0384:
                                           ; SOURCE LINE # 1674
                                           ; SOURCE LINE # 1675
0FB1 22                RET     
                                           ; SOURCE LINE # 1676
0FB2         ?C0385:
                                           ; SOURCE LINE # 1677
                                           ; SOURCE LINE # 1678
0FB2 905016            MOV     DPTR,#05016H
0FB5 E0                MOVX    A,@DPTR
0FB6 FF                MOV     R7,A
0FB7 EF                MOV     A,R7
0FB8 4401              ORL     A,#01H
0FBA FF                MOV     R7,A
0FBB EF                MOV     A,R7
0FBC F0                MOVX    @DPTR,A
                                           ; SOURCE LINE # 1679
0FBD 905017            MOV     DPTR,#05017H
0FC0 E0                MOVX    A,@DPTR
0FC1 FF                MOV     R7,A
0FC2 EF                MOV     A,R7
0FC3 54FE              ANL     A,#0FEH
0FC5 FF                MOV     R7,A
0FC6 EF                MOV     A,R7
0FC7 F0                MOVX    @DPTR,A
                                           ; SOURCE LINE # 1680
0FC8 905064            MOV     DPTR,#05064H
0FCB E0                MOVX    A,@DPTR
0FCC FF                MOV     R7,A
0FCD EF                MOV     A,R7
0FCE 4401              ORL     A,#01H
0FD0 FF                MOV     R7,A
0FD1 EF                MOV     A,R7
0FD2 F0                MOVX    @DPTR,A
                                           ; SOURCE LINE # 1681
0FD3 905065            MOV     DPTR,#05065H
0FD6 E0                MOVX    A,@DPTR
0FD7 FF                MOV     R7,A
0FD8 EF                MOV     A,R7
0FD9 54FE              ANL     A,#0FEH
0FDB FF                MOV     R7,A
0FDC EF                MOV     A,R7
0FDD F0                MOVX    @DPTR,A
                                           ; SOURCE LINE # 1682
0FDE 905034            MOV     DPTR,#05034H
0FE1 E0                MOVX    A,@DPTR
0FE2 FF                MOV     R7,A
0FE3 EF                MOV     A,R7
0FE4 4401              ORL     A,#01H
0FE6 FF                MOV     R7,A
0FE7 EF                MOV     A,R7
0FE8 F0                MOVX    @DPTR,A
                                           ; SOURCE LINE # 1684
0FE9 7BFF              MOV     R3,#0FFH
0FEB 7A00        R     MOV     R2,#HIGH ?SC_190
0FED 7900        R     MOV     R1,#LOW ?SC_190
0FEF 120000      E     LCALL   _UART_PutString
0FF2         ?C0386:
                                           ; SOURCE LINE # 1685
C51 COMPILER V9.51   TASK1                                                                 07/01/2014 18:20:50 PAGE 136 

0FF2 120000      E     LCALL   UART_ReadTxStatus
0FF5 EF                MOV     A,R7
0FF6 30E103            JNB     ACC.1,$ + 6H
0FF9 020000      R     LJMP    ?C0412
0FFC 80F4              SJMP    ?C0386
0FFE         ?C0387:
                                           ; SOURCE LINE # 1686
                                           ; SOURCE LINE # 1687
0FFE 22                RET     
                                           ; SOURCE LINE # 1688
0FFF         ?C0388:
                                           ; SOURCE LINE # 1689
                                           ; SOURCE LINE # 1690
0FFF 905016            MOV     DPTR,#05016H
1002 E0                MOVX    A,@DPTR
1003 FF                MOV     R7,A
1004 EF                MOV     A,R7
1005 54FE              ANL     A,#0FEH
1007 FF                MOV     R7,A
1008 EF                MOV     A,R7
1009 F0                MOVX    @DPTR,A
                                           ; SOURCE LINE # 1691
100A 905017            MOV     DPTR,#05017H
100D E0                MOVX    A,@DPTR
100E FF                MOV     R7,A
100F EF                MOV     A,R7
1010 4401              ORL     A,#01H
1012 FF                MOV     R7,A
1013 EF                MOV     A,R7
1014 F0                MOVX    @DPTR,A
                                           ; SOURCE LINE # 1692
1015 905064            MOV     DPTR,#05064H
1018 E0                MOVX    A,@DPTR
1019 FF                MOV     R7,A
101A EF                MOV     A,R7
101B 4401              ORL     A,#01H
101D FF                MOV     R7,A
101E EF                MOV     A,R7
101F F0                MOVX    @DPTR,A
                                           ; SOURCE LINE # 1693
1020 905065            MOV     DPTR,#05065H
1023 E0                MOVX    A,@DPTR
1024 FF                MOV     R7,A
1025 EF                MOV     A,R7
1026 54FE              ANL     A,#0FEH
1028 FF                MOV     R7,A
1029 EF                MOV     A,R7
102A F0                MOVX    @DPTR,A
                                           ; SOURCE LINE # 1694
102B 905034            MOV     DPTR,#05034H
102E E0                MOVX    A,@DPTR
102F FF                MOV     R7,A
1030 EF                MOV     A,R7
1031 4401              ORL     A,#01H
1033 FF                MOV     R7,A
1034 EF                MOV     A,R7
1035 F0                MOVX    @DPTR,A
                                           ; SOURCE LINE # 1696
1036 7BFF              MOV     R3,#0FFH
1038 7A00        R     MOV     R2,#HIGH ?SC_196
103A 7900        R     MOV     R1,#LOW ?SC_196
103C 120000      E     LCALL   _UART_PutString
C51 COMPILER V9.51   TASK1                                                                 07/01/2014 18:20:50 PAGE 137 

103F         ?C0389:
                                           ; SOURCE LINE # 1697
103F 120000      E     LCALL   UART_ReadTxStatus
1042 EF                MOV     A,R7
1043 30E103            JNB     ACC.1,$ + 6H
1046 020000      R     LJMP    ?C0412
1049 80F4              SJMP    ?C0389
104B         ?C0390:
                                           ; SOURCE LINE # 1698
                                           ; SOURCE LINE # 1699
104B 22                RET     
                                           ; SOURCE LINE # 1700
104C         ?C0391:
                                           ; SOURCE LINE # 1701
                                           ; SOURCE LINE # 1702
104C 905016            MOV     DPTR,#05016H
104F E0                MOVX    A,@DPTR
1050 FF                MOV     R7,A
1051 EF                MOV     A,R7
1052 4401              ORL     A,#01H
1054 FF                MOV     R7,A
1055 EF                MOV     A,R7
1056 F0                MOVX    @DPTR,A
                                           ; SOURCE LINE # 1703
1057 905017            MOV     DPTR,#05017H
105A E0                MOVX    A,@DPTR
105B FF                MOV     R7,A
105C EF                MOV     A,R7
105D 4401              ORL     A,#01H
105F FF                MOV     R7,A
1060 EF                MOV     A,R7
1061 F0                MOVX    @DPTR,A
                                           ; SOURCE LINE # 1704
1062 905064            MOV     DPTR,#05064H
1065 E0                MOVX    A,@DPTR
1066 FF                MOV     R7,A
1067 EF                MOV     A,R7
1068 4401              ORL     A,#01H
106A FF                MOV     R7,A
106B EF                MOV     A,R7
106C F0                MOVX    @DPTR,A
                                           ; SOURCE LINE # 1705
106D 905065            MOV     DPTR,#05065H
1070 E0                MOVX    A,@DPTR
1071 FF                MOV     R7,A
1072 EF                MOV     A,R7
1073 54FE              ANL     A,#0FEH
1075 FF                MOV     R7,A
1076 EF                MOV     A,R7
1077 F0                MOVX    @DPTR,A
                                           ; SOURCE LINE # 1706
1078 905034            MOV     DPTR,#05034H
107B E0                MOVX    A,@DPTR
107C FF                MOV     R7,A
107D EF                MOV     A,R7
107E 4401              ORL     A,#01H
1080 FF                MOV     R7,A
1081 EF                MOV     A,R7
1082 F0                MOVX    @DPTR,A
                                           ; SOURCE LINE # 1708
1083 7BFF              MOV     R3,#0FFH
1085 7A00        R     MOV     R2,#HIGH ?SC_202
C51 COMPILER V9.51   TASK1                                                                 07/01/2014 18:20:50 PAGE 138 

1087 7900        R     MOV     R1,#LOW ?SC_202
1089 120000      E     LCALL   _UART_PutString
108C         ?C0392:
                                           ; SOURCE LINE # 1709
108C 120000      E     LCALL   UART_ReadTxStatus
108F EF                MOV     A,R7
1090 30E103            JNB     ACC.1,$ + 6H
1093 020000      R     LJMP    ?C0412
1096 80F4              SJMP    ?C0392
1098         ?C0393:
                                           ; SOURCE LINE # 1710
                                           ; SOURCE LINE # 1711
1098 22                RET     
                                           ; SOURCE LINE # 1712
                                           ; SOURCE LINE # 1713
1099 22                RET     
109A         ?C0320:
                                           ; SOURCE LINE # 1714
                                           ; SOURCE LINE # 1715
109A 900000      R     MOV     DPTR,#i
109D E4                CLR     A
109E F0                MOVX    @DPTR,A
109F         ?C0395:
109F 900000      R     MOV     DPTR,#i
10A2 E0                MOVX    A,@DPTR
10A3 FF                MOV     R7,A
10A4 EF                MOV     A,R7
10A5 D3                SETB    C
10A6 941F              SUBB    A,#01FH
10A8 5019              JNC     ?C0396
                                           ; SOURCE LINE # 1716
10AA 900000      R     MOV     DPTR,#i
10AD E0                MOVX    A,@DPTR
10AE FF                MOV     R7,A
10AF 7400        E     MOV     A,#LOW rx_word
10B1 2F                ADD     A,R7
10B2 F582              MOV     DPL,A
10B4 E4                CLR     A
10B5 3400        E     ADDC    A,#HIGH rx_word
10B7 F583              MOV     DPH,A
10B9 E4                CLR     A
10BA F0                MOVX    @DPTR,A
                                           ; SOURCE LINE # 1717
10BB 900000      R     MOV     DPTR,#i
10BE E0                MOVX    A,@DPTR
10BF 04                INC     A
10C0 F0                MOVX    @DPTR,A
10C1 80DC              SJMP    ?C0395
10C3         ?C0396:
                                           ; SOURCE LINE # 1718
10C3 7F01              MOV     R7,#01H
10C5 7E00              MOV     R6,#00H
10C7 7D00              MOV     R5,#00H
10C9 7C00              MOV     R4,#00H
10CB 120000      E     LCALL   _?CyDelay
                                           ; SOURCE LINE # 1719
10CE 900000      R     MOV     DPTR,#dat_cnt
10D1 E4                CLR     A
10D2 F0                MOVX    @DPTR,A
                                           ; SOURCE LINE # 1720
10D3 900000      R     MOV     DPTR,#cmd_exct
10D6 E4                CLR     A
C51 COMPILER V9.51   TASK1                                                                 07/01/2014 18:20:50 PAGE 139 

10D7 F0                MOVX    @DPTR,A
                                           ; SOURCE LINE # 1722
10D8 7BFF              MOV     R3,#0FFH
10DA 7A00        R     MOV     R2,#HIGH ?SC_208
10DC 7900        R     MOV     R1,#LOW ?SC_208
10DE 120000      E     LCALL   _UART_PutString
10E1         ?C0398:
                                           ; SOURCE LINE # 1723
10E1 120000      E     LCALL   UART_ReadTxStatus
10E4 EF                MOV     A,R7
10E5 30E103            JNB     ACC.1,$ + 6H
10E8 020000      R     LJMP    ?C0412
10EB 80F4              SJMP    ?C0398
10ED         ?C0399:
                                           ; SOURCE LINE # 1724
                                           ; SOURCE LINE # 1725
10ED 22                RET     
                                           ; SOURCE LINE # 1728
10EE         ?C0400:
                                           ; SOURCE LINE # 1730
10EE 900000      R     MOV     DPTR,#cmd+01H
10F1 E4                CLR     A
10F2 75F001            MOV     B,#01H
10F5 120000      E     LCALL   ?C?IILDX
                                           ; SOURCE LINE # 1731
10F8 900000      R     MOV     DPTR,#cmd
10FB 120000      E     LCALL   ?C?PLDXDATA
10FE 120000      E     LCALL   ?C?CLDPTR
1101 FF                MOV     R7,A
1102 EF                MOV     A,R7
1103 B4FF04            CJNE    A,#0FFH,?C0401
                                           ; SOURCE LINE # 1732
1106 120000      E     LCALL   CySoftwareReset
                                           ; SOURCE LINE # 1733
1109 22                RET     
110A         ?C0401:
                                           ; SOURCE LINE # 1734
110A 900000      R     MOV     DPTR,#cmd
110D 120000      E     LCALL   ?C?PLDXDATA
1110 120000      E     LCALL   ?C?CLDPTR
1113 FF                MOV     R7,A
1114 EF                MOV     A,R7
1115 B40F13            CJNE    A,#0FH,?C0403
                                           ; SOURCE LINE # 1737
1118 7BFF              MOV     R3,#0FFH
111A 7A00        R     MOV     R2,#HIGH ?SC_0
111C 7900        R     MOV     R1,#LOW ?SC_0
111E 120000      E     LCALL   _UART_PutString
1121         ?C0404:
                                           ; SOURCE LINE # 1738
1121 120000      E     LCALL   UART_ReadTxStatus
1124 EF                MOV     A,R7
1125 20E146            JB      ACC.1,?C0412
1128 80F7              SJMP    ?C0404
112A         ?C0405:
                                           ; SOURCE LINE # 1739
112A 22                RET     
112B         ?C0403:
                                           ; SOURCE LINE # 1740
                                           ; SOURCE LINE # 1741
112B 900000      R     MOV     DPTR,#i
112E E4                CLR     A
C51 COMPILER V9.51   TASK1                                                                 07/01/2014 18:20:50 PAGE 140 

112F F0                MOVX    @DPTR,A
1130         ?C0407:
1130 900000      R     MOV     DPTR,#i
1133 E0                MOVX    A,@DPTR
1134 FF                MOV     R7,A
1135 EF                MOV     A,R7
1136 D3                SETB    C
1137 941F              SUBB    A,#01FH
1139 5019              JNC     ?C0408
                                           ; SOURCE LINE # 1742
113B 900000      R     MOV     DPTR,#i
113E E0                MOVX    A,@DPTR
113F FF                MOV     R7,A
1140 7400        E     MOV     A,#LOW rx_word
1142 2F                ADD     A,R7
1143 F582              MOV     DPL,A
1145 E4                CLR     A
1146 3400        E     ADDC    A,#HIGH rx_word
1148 F583              MOV     DPH,A
114A E4                CLR     A
114B F0                MOVX    @DPTR,A
                                           ; SOURCE LINE # 1743
114C 900000      R     MOV     DPTR,#i
114F E0                MOVX    A,@DPTR
1150 04                INC     A
1151 F0                MOVX    @DPTR,A
1152 80DC              SJMP    ?C0407
1154         ?C0408:
                                           ; SOURCE LINE # 1744
1154 900000      R     MOV     DPTR,#dat_cnt
1157 E4                CLR     A
1158 F0                MOVX    @DPTR,A
                                           ; SOURCE LINE # 1745
1159 900000      R     MOV     DPTR,#cmd_exct
115C E4                CLR     A
115D F0                MOVX    @DPTR,A
                                           ; SOURCE LINE # 1747
115E 7BFF              MOV     R3,#0FFH
1160 7A00        R     MOV     R2,#HIGH ?SC_47
1162 7900        R     MOV     R1,#LOW ?SC_47
1164 120000      E     LCALL   _UART_PutString
1167         ?C0410:
                                           ; SOURCE LINE # 1748
1167 120000      E     LCALL   UART_ReadTxStatus
116A EF                MOV     A,R7
116B 30E1F9            JNB     ACC.1,?C0410
116E         ?C0411:
                                           ; SOURCE LINE # 1749
                                           ; SOURCE LINE # 1750
                                           ; SOURCE LINE # 1751
                                           ; SOURCE LINE # 1752
116E         ?C0412:
116E 22                RET     
             ; FUNCTION _switching_main (END)

             ; FUNCTION TASK_1 (BEGIN)
                                           ; SOURCE LINE # 1754
                                           ; SOURCE LINE # 1755
                                           ; SOURCE LINE # 1756
0000 7F01              MOV     R7,#01H
0002 120000      E     LCALL   _os_create_task
                                           ; SOURCE LINE # 1757
C51 COMPILER V9.51   TASK1                                                                 07/01/2014 18:20:50 PAGE 141 

0005 22                RET     
             ; FUNCTION TASK_1 (END)



MODULE INFORMATION:   STATIC OVERLAYABLE
   CODE SIZE        =   9193    ----
   CONSTANT SIZE    =    213    ----
   XDATA SIZE       =     58      24
   PDATA SIZE       =   ----    ----
   DATA SIZE        =   ----    ----
   IDATA SIZE       =   ----    ----
   BIT SIZE         =   ----    ----
   EDATA SIZE       =   ----    ----
   HDATA SIZE       =   ----    ----
   XDATA CONST SIZE =   ----    ----
   FAR CONST SIZE   =   ----    ----
END OF MODULE INFORMATION.


C51 COMPILATION COMPLETE.  3 WARNING(S),  0 ERROR(S)
